ARM GAS  /tmp/ccWzecem.s 			page 1


   1              		.cpu cortex-m4
   2              		.eabi_attribute 27, 1
   3              		.eabi_attribute 28, 1
   4              		.eabi_attribute 20, 1
   5              		.eabi_attribute 21, 1
   6              		.eabi_attribute 23, 3
   7              		.eabi_attribute 24, 1
   8              		.eabi_attribute 25, 1
   9              		.eabi_attribute 26, 1
  10              		.eabi_attribute 30, 4
  11              		.eabi_attribute 34, 1
  12              		.eabi_attribute 18, 4
  13              		.file	"Clock.cpp"
  14              		.text
  15              	.Ltext0:
  16              		.cfi_sections	.debug_frame
  17              		.align	1
  18              		.global	_hook_init
  19              		.arch armv7e-m
  20              		.syntax unified
  21              		.thumb
  22              		.thumb_func
  23              		.fpu fpv4-sp-d16
  24              		.type	_hook_init, %function
  25              	_hook_init:
  26              	.LVL0:
  27              	.LFB475:
  28              		.file 1 "Clock.cpp"
  29              		.loc 1 21 1 view -0
  30              		.cfi_startproc
  31              		@ args = 0, pretend = 0, frame = 0
  32              		@ frame_needed = 0, uses_anonymous_args = 0
  33              		.loc 1 22 3 view .LVU1
  34              		.loc 1 23 3 view .LVU2
  35              		.loc 1 24 3 view .LVU3
  36              		.loc 1 24 18 is_stmt 0 view .LVU4
  37 0000 154B     		ldr	r3, .L3
  38              		.loc 1 21 1 view .LVU5
  39 0002 10B5     		push	{r4, lr}
  40              		.cfi_def_cfa_offset 8
  41              		.cfi_offset 4, -8
  42              		.cfi_offset 14, -4
  43              	.LBB34:
  44              	.LBB35:
  45              		.file 2 "Clock.hpp"
  46              		.loc 2 33 17 view .LVU6
  47 0004 154C     		ldr	r4, .L3+4
  48              	.LBE35:
  49              	.LBE34:
  50              		.loc 1 24 18 view .LVU7
  51 0006 D3ED017A 		vldr.32	s15, [r3, #4]
  52              	.LVL1:
  53              	.LBB41:
  54              	.LBI34:
  55              		.loc 2 31 10 is_stmt 1 view .LVU8
  56              	.LBB40:
  57              		.loc 2 33 9 view .LVU9
ARM GAS  /tmp/ccWzecem.s 			page 2


  58              		.loc 2 34 9 is_stmt 0 view .LVU10
  59 000a 94ED027A 		vldr.32	s14, [r4, #8]
  60              		.loc 2 33 17 view .LVU11
  61 000e 1B68     		ldr	r3, [r3]	@ float
  62 0010 6360     		str	r3, [r4, #4]	@ float
  63              		.loc 2 34 9 is_stmt 1 view .LVU12
  64 0012 F4EE477A 		vcmp.f32	s15, s14
  65 0016 F1EE10FA 		vmrs	APSR_nzcv, FPSCR
  66 001a 1BD0     		beq	.L1
  67              	.LVL2:
  68              	.LBB36:
  69              	.LBI36:
  70              		.loc 2 31 10 view .LVU13
  71              	.LBB37:
  72              		.loc 2 36 13 view .LVU14
  73              		.loc 2 36 26 is_stmt 0 view .LVU15
  74 001c C4ED027A 		vstr.32	s15, [r4, #8]
  75              		.loc 2 37 13 is_stmt 1 view .LVU16
  76              	.LBB38:
  77              	.LBI38:
  78              		.file 3 "/workspace/minilogue-xd/inc/osc_api.h"
  79              		.loc 3 780 23 view .LVU17
  80              	.LBB39:
  81              		.loc 3 781 5 view .LVU18
  82              		.loc 3 781 22 is_stmt 0 view .LVU19
  83 0020 FFF7FEFF 		bl	_osc_white
  84              	.LVL3:
  85              		.loc 3 781 22 view .LVU20
  86              	.LBE39:
  87              	.LBE38:
  88              		.loc 2 37 34 view .LVU21
  89 0024 F7EE007A 		vmov.f32	s15, #1.0e+0
  90 0028 30EE270A 		vadd.f32	s0, s0, s15
  91              		.loc 2 37 39 view .LVU22
  92 002c F6EE007A 		vmov.f32	s15, #5.0e-1
  93 0030 20EE270A 		vmul.f32	s0, s0, s15
  94              		.loc 2 37 44 view .LVU23
  95 0034 DFED0A7A 		vldr.32	s15, .L3+8
  96              		.loc 2 38 38 view .LVU24
  97 0038 94ED007A 		vldr.32	s14, [r4]
  98              		.loc 2 37 44 view .LVU25
  99 003c 20EE270A 		vmul.f32	s0, s0, s15
 100              		.loc 2 38 29 view .LVU26
 101 0040 DFED087A 		vldr.32	s15, .L3+12
 102              		.loc 2 37 20 view .LVU27
 103 0044 84ED030A 		vstr.32	s0, [r4, #12]
 104              		.loc 2 38 13 is_stmt 1 view .LVU28
 105              		.loc 2 38 29 is_stmt 0 view .LVU29
 106 0048 20EE270A 		vmul.f32	s0, s0, s15
 107              		.loc 2 38 38 view .LVU30
 108 004c C0EE077A 		vdiv.f32	s15, s0, s14
 109              		.loc 2 38 19 view .LVU31
 110 0050 C4ED077A 		vstr.32	s15, [r4, #28]
 111              	.LVL4:
 112              	.L1:
 113              		.loc 2 38 19 view .LVU32
 114              	.LBE37:
ARM GAS  /tmp/ccWzecem.s 			page 3


 115              	.LBE36:
 116              	.LBE40:
 117              	.LBE41:
 118              		.loc 1 25 1 view .LVU33
 119 0054 10BD     		pop	{r4, pc}
 120              	.L4:
 121 0056 00BF     		.align	2
 122              	.L3:
 123 0058 00000000 		.word	.LANCHOR0
 124 005c 00000000 		.word	.LANCHOR1
 125 0060 00401C46 		.word	1176256512
 126 0064 DB0FC940 		.word	1086918619
 127              		.cfi_endproc
 128              	.LFE475:
 129              		.size	_hook_init, .-_hook_init
 130              		.align	1
 131              		.global	_hook_cycle
 132              		.syntax unified
 133              		.thumb
 134              		.thumb_func
 135              		.fpu fpv4-sp-d16
 136              		.type	_hook_cycle, %function
 137              	_hook_cycle:
 138              	.LVL5:
 139              	.LFB476:
 140              		.loc 1 30 1 is_stmt 1 view -0
 141              		.cfi_startproc
 142              		@ args = 0, pretend = 0, frame = 0
 143              		@ frame_needed = 0, uses_anonymous_args = 0
 144              		.loc 1 31 3 view .LVU35
 145              		.loc 1 30 1 is_stmt 0 view .LVU36
 146 0068 70B5     		push	{r4, r5, r6, lr}
 147              		.cfi_def_cfa_offset 16
 148              		.cfi_offset 4, -16
 149              		.cfi_offset 5, -12
 150              		.cfi_offset 6, -8
 151              		.cfi_offset 14, -4
 152              		.loc 1 31 18 view .LVU37
 153 006a 4F4B     		ldr	r3, .L25
 154              	.LBB70:
 155              	.LBB71:
 156              		.loc 2 33 17 view .LVU38
 157 006c 4F4C     		ldr	r4, .L25+4
 158              	.LBE71:
 159              	.LBE70:
 160              		.loc 1 31 18 view .LVU39
 161 006e D3ED017A 		vldr.32	s15, [r3, #4]
 162              	.LVL6:
 163              	.LBB78:
 164              	.LBI70:
 165              		.loc 2 31 10 is_stmt 1 view .LVU40
 166              	.LBB76:
 167              		.loc 2 33 9 view .LVU41
 168              		.loc 2 34 9 is_stmt 0 view .LVU42
 169 0072 94ED027A 		vldr.32	s14, [r4, #8]
 170              		.loc 2 33 17 view .LVU43
 171 0076 1B68     		ldr	r3, [r3]	@ float
ARM GAS  /tmp/ccWzecem.s 			page 4


 172 0078 6360     		str	r3, [r4, #4]	@ float
 173              		.loc 2 34 9 is_stmt 1 view .LVU44
 174 007a F4EE477A 		vcmp.f32	s15, s14
 175 007e F1EE10FA 		vmrs	APSR_nzcv, FPSCR
 176              	.LBE76:
 177              	.LBE78:
 178              		.loc 1 30 1 is_stmt 0 view .LVU45
 179 0082 2DED068B 		vpush.64	{d8, d9, d10}
 180              		.cfi_def_cfa_offset 40
 181              		.cfi_offset 80, -40
 182              		.cfi_offset 81, -36
 183              		.cfi_offset 82, -32
 184              		.cfi_offset 83, -28
 185              		.cfi_offset 84, -24
 186              		.cfi_offset 85, -20
 187              		.loc 1 30 1 view .LVU46
 188 0086 0D46     		mov	r5, r1
 189 0088 1646     		mov	r6, r2
 190              	.LBB79:
 191              	.LBB77:
 192              		.loc 2 34 9 view .LVU47
 193 008a 1BD0     		beq	.L6
 194              	.LVL7:
 195              	.LBB72:
 196              	.LBI72:
 197              		.loc 2 31 10 is_stmt 1 view .LVU48
 198              	.LBB73:
 199              		.loc 2 36 13 view .LVU49
 200              		.loc 2 36 26 is_stmt 0 view .LVU50
 201 008c C4ED027A 		vstr.32	s15, [r4, #8]
 202              		.loc 2 37 13 is_stmt 1 view .LVU51
 203              	.LBB74:
 204              	.LBI74:
 205              		.loc 3 780 23 view .LVU52
 206              	.LBB75:
 207              		.loc 3 781 5 view .LVU53
 208              		.loc 3 781 22 is_stmt 0 view .LVU54
 209 0090 FFF7FEFF 		bl	_osc_white
 210              	.LVL8:
 211              		.loc 3 781 22 view .LVU55
 212              	.LBE75:
 213              	.LBE74:
 214              		.loc 2 37 34 view .LVU56
 215 0094 F7EE007A 		vmov.f32	s15, #1.0e+0
 216 0098 30EE270A 		vadd.f32	s0, s0, s15
 217              		.loc 2 37 39 view .LVU57
 218 009c F6EE007A 		vmov.f32	s15, #5.0e-1
 219 00a0 20EE270A 		vmul.f32	s0, s0, s15
 220              		.loc 2 37 44 view .LVU58
 221 00a4 DFED427A 		vldr.32	s15, .L25+8
 222              		.loc 2 38 38 view .LVU59
 223 00a8 94ED007A 		vldr.32	s14, [r4]
 224              		.loc 2 37 44 view .LVU60
 225 00ac 20EE270A 		vmul.f32	s0, s0, s15
 226              		.loc 2 38 29 view .LVU61
 227 00b0 DFED407A 		vldr.32	s15, .L25+12
 228              		.loc 2 37 20 view .LVU62
ARM GAS  /tmp/ccWzecem.s 			page 5


 229 00b4 84ED030A 		vstr.32	s0, [r4, #12]
 230              		.loc 2 38 13 is_stmt 1 view .LVU63
 231              		.loc 2 38 29 is_stmt 0 view .LVU64
 232 00b8 20EE270A 		vmul.f32	s0, s0, s15
 233              		.loc 2 38 38 view .LVU65
 234 00bc C0EE077A 		vdiv.f32	s15, s0, s14
 235              		.loc 2 38 19 view .LVU66
 236 00c0 C4ED077A 		vstr.32	s15, [r4, #28]
 237              	.LVL9:
 238              	.L6:
 239              		.loc 2 38 19 view .LVU67
 240              	.LBE73:
 241              	.LBE72:
 242              	.LBE77:
 243              	.LBE79:
 244              	.LBB80:
 245              	.LBB81:
 246              	.LBB82:
 247              	.LBB83:
 248              	.LBB84:
 249              		.file 4 "Metro.hpp"
 250              		.loc 4 18 32 discriminator 3 view .LVU68
 251 00c4 9FED3C9A 		vldr.32	s18, .L25+16
 252 00c8 DFED3C8A 		vldr.32	s17, .L25+20
 253 00cc DFED399A 		vldr.32	s19, .L25+12
 254 00d0 05EB8606 		add	r6, r5, r6, lsl #2
 255              	.LVL10:
 256              	.L18:
 257              		.loc 4 18 32 discriminator 3 view .LVU69
 258              	.LBE84:
 259              	.LBE83:
 260              	.LBE82:
 261              	.LBE81:
 262              		.loc 1 32 31 is_stmt 1 discriminator 3 view .LVU70
 263 00d4 AE42     		cmp	r6, r5
 264 00d6 64D0     		beq	.L5
 265              		.loc 1 34 5 view .LVU71
 266              	.LVL11:
 267              	.LBB104:
 268              	.LBI81:
 269              		.loc 2 46 11 view .LVU72
 270              	.LBB101:
 271              		.loc 2 48 9 view .LVU73
 272              		.loc 2 49 9 view .LVU74
 273              	.LBB88:
 274              	.LBI83:
 275              		.loc 4 15 9 view .LVU75
 276              	.LBB85:
 277              		.loc 4 17 5 view .LVU76
 278              		.loc 4 18 32 is_stmt 0 view .LVU77
 279 00d8 94ED0A7A 		vldr.32	s14, [r4, #40]
 280              		.loc 4 17 11 view .LVU78
 281 00dc 94ED09AA 		vldr.32	s20, [r4, #36]
 282              	.LVL12:
 283              		.loc 4 18 5 is_stmt 1 view .LVU79
 284 00e0 D4ED04AA 		vldr.32	s21, [r4, #16]
 285 00e4 94ED060A 		vldr.32	s0, [r4, #24]
ARM GAS  /tmp/ccWzecem.s 			page 6


 286              		.loc 4 18 32 is_stmt 0 view .LVU80
 287 00e8 C9EE077A 		vdiv.f32	s15, s18, s14
 288              		.loc 4 19 5 view .LVU81
 289 00ec 94ED087A 		vldr.32	s14, [r4, #32]
 290              		.loc 4 18 21 view .LVU82
 291 00f0 77EE8A7A 		vadd.f32	s15, s15, s20
 292              		.loc 4 19 5 is_stmt 1 view .LVU83
 293              		.loc 4 20 23 is_stmt 0 view .LVU84
 294 00f4 F4EE477A 		vcmp.f32	s15, s14
 295 00f8 F1EE10FA 		vmrs	APSR_nzcv, FPSCR
 296              	.LBE85:
 297              	.LBE88:
 298              		.loc 2 50 9 view .LVU85
 299 00fc B5EE40AA 		vcmp.f32	s20, #0
 300              	.LBB89:
 301              	.LBB86:
 302              		.loc 4 20 23 view .LVU86
 303 0100 C8BF     		it	gt
 304 0102 F0EE687A 		vmovgt.f32	s15, s17
 305              	.LBE86:
 306              	.LBE89:
 307              		.loc 2 50 9 view .LVU87
 308 0106 F1EE10FA 		vmrs	APSR_nzcv, FPSCR
 309              	.LBB90:
 310              	.LBB87:
 311              		.loc 4 20 23 view .LVU88
 312 010a C4ED097A 		vstr.32	s15, [r4, #36]
 313              		.loc 4 21 5 is_stmt 1 view .LVU89
 314              	.LVL13:
 315              		.loc 4 21 5 is_stmt 0 view .LVU90
 316              	.LBE87:
 317              	.LBE90:
 318              		.loc 2 50 9 is_stmt 1 view .LVU91
 319 010e 34D1     		bne	.L10
 320              		.loc 2 52 13 view .LVU92
 321              	.LVL14:
 322              	.LBB91:
 323              	.LBI91:
 324              		.loc 4 23 8 view .LVU93
 325              	.LBB92:
 326              		.loc 4 25 5 view .LVU94
 327              		.loc 4 25 18 is_stmt 0 view .LVU95
 328 0110 6368     		ldr	r3, [r4, #4]	@ float
 329 0112 2362     		str	r3, [r4, #32]	@ float
 330              	.LVL15:
 331              		.loc 4 25 18 view .LVU96
 332              	.LBE92:
 333              	.LBE91:
 334              		.loc 2 53 13 is_stmt 1 view .LVU97
 335 0114 6369     		ldr	r3, [r4, #20]
 336 0116 0133     		adds	r3, r3, #1
 337              		.loc 2 53 25 is_stmt 0 view .LVU98
 338 0118 5A42     		rsbs	r2, r3, #0
 339 011a 02F00302 		and	r2, r2, #3
 340 011e 03F00303 		and	r3, r3, #3
 341 0122 58BF     		it	pl
 342 0124 5342     		rsbpl	r3, r2, #0
ARM GAS  /tmp/ccWzecem.s 			page 7


 343 0126 6361     		str	r3, [r4, #20]
 344              		.loc 2 54 13 is_stmt 1 view .LVU99
 345              	.LVL16:
 346              	.L23:
 347              		.loc 2 58 13 view .LVU100
 348              		.loc 2 58 26 is_stmt 0 view .LVU101
 349 0128 FFF7FEFF 		bl	sinf
 350              	.LVL17:
 351 012c B0EE408A 		vmov.f32	s16, s0
 352              	.LVL18:
 353              	.LBB93:
 354              	.LBI93:
 355              		.file 5 "/usr/include/newlib/c++/9.2.1/cmath"
 356              		.loc 5 463 3 is_stmt 1 view .LVU102
 357              	.LBB94:
 358              		.loc 5 464 5 view .LVU103
 359              		.loc 5 464 27 is_stmt 0 view .LVU104
 360 0130 3AEECA0A 		vsub.f32	s0, s21, s20
 361              	.LVL19:
 362              		.loc 5 464 27 view .LVU105
 363 0134 FFF7FEFF 		bl	sqrtf
 364              	.LVL20:
 365              		.loc 5 464 27 view .LVU106
 366              	.LBE94:
 367              	.LBE93:
 368              		.loc 2 58 20 view .LVU107
 369 0138 28EE000A 		vmul.f32	s0, s16, s0
 370              	.LVL21:
 371              	.L11:
 372              		.loc 2 66 9 is_stmt 1 view .LVU108
 373              	.LBB95:
 374 013c 6369     		ldr	r3, [r4, #20]
 375 013e D4ED067A 		vldr.32	s15, [r4, #24]
 376 0142 032B     		cmp	r3, #3
 377 0144 21D1     		bne	.L13
 378              	.LVL22:
 379              		.loc 2 66 9 is_stmt 0 view .LVU109
 380              	.LBE95:
 381              	.LBB96:
 382              	.LBI96:
 383              		.loc 2 46 11 is_stmt 1 view .LVU110
 384              	.LBB97:
 385              	.LBB98:
 386              		.loc 2 68 13 view .LVU111
 387              		.loc 2 69 13 view .LVU112
 388              		.loc 2 68 44 is_stmt 0 view .LVU113
 389 0146 D4ED036A 		vldr.32	s13, [r4, #12]
 390              		.loc 2 68 19 view .LVU114
 391 014a 94ED006A 		vldr.32	s12, [r4]
 392              		.loc 2 68 44 view .LVU115
 393 014e B7EE087A 		vmov.f32	s14, #1.5e+0
 394 0152 66EE876A 		vmul.f32	s13, s13, s14
 395              		.loc 2 68 34 view .LVU116
 396 0156 66EEA96A 		vmul.f32	s13, s13, s19
 397              		.loc 2 68 19 view .LVU117
 398 015a 86EE867A 		vdiv.f32	s14, s13, s12
 399              		.loc 2 69 21 view .LVU118
ARM GAS  /tmp/ccWzecem.s 			page 8


 400 015e 77EE277A 		vadd.f32	s15, s14, s15
 401              		.loc 2 70 13 is_stmt 1 view .LVU119
 402 0162 F4EEE97A 		vcmpe.f32	s15, s19
 403 0166 F1EE10FA 		vmrs	APSR_nzcv, FPSCR
 404 016a 17DA     		bge	.L16
 405              	.LVL23:
 406              	.L24:
 407              		.loc 2 70 13 is_stmt 0 view .LVU120
 408              	.LBE98:
 409              	.LBE97:
 410              	.LBE96:
 411              	.LBE101:
 412              	.LBE104:
 413              		.loc 1 34 18 view .LVU121
 414 016c BEEEE00A 		vcvt.s32.f32	s0, s0, #31
 415              	.LVL24:
 416              	.LBB105:
 417              	.LBB102:
 418              	.LBB99:
 419              		.loc 2 75 44 view .LVU122
 420 0170 C4ED067A 		vstr.32	s15, [r4, #24]
 421              	.LBE99:
 422              		.loc 2 77 9 is_stmt 1 view .LVU123
 423              	.LVL25:
 424              		.loc 2 77 9 is_stmt 0 view .LVU124
 425              	.LBE102:
 426              	.LBE105:
 427              		.loc 1 34 18 view .LVU125
 428 0174 A5EC010A 		vstmia.32	r5!, {s0}	@ int
 429              		.loc 1 32 3 is_stmt 1 view .LVU126
 430 0178 ACE7     		b	.L18
 431              	.LVL26:
 432              	.L10:
 433              	.LBB106:
 434              	.LBB103:
 435              		.loc 2 56 14 view .LVU127
 436 017a B4EEEAAA 		vcmpe.f32	s20, s21
 437 017e F1EE10FA 		vmrs	APSR_nzcv, FPSCR
 438 0182 D1D9     		bls	.L23
 439              		.loc 2 62 20 is_stmt 0 view .LVU128
 440 0184 B0EE680A 		vmov.f32	s0, s17
 441 0188 D8E7     		b	.L11
 442              	.LVL27:
 443              	.L13:
 444              	.LBB100:
 445              		.loc 2 74 13 is_stmt 1 view .LVU129
 446              		.loc 2 74 21 is_stmt 0 view .LVU130
 447 018a 94ED077A 		vldr.32	s14, [r4, #28]
 448 018e 77EE877A 		vadd.f32	s15, s15, s14
 449              		.loc 2 75 13 is_stmt 1 view .LVU131
 450 0192 F4EEE97A 		vcmpe.f32	s15, s19
 451 0196 F1EE10FA 		vmrs	APSR_nzcv, FPSCR
 452 019a E7DB     		blt	.L24
 453              	.L16:
 454              		.loc 2 75 36 view .LVU132
 455              		.loc 2 75 44 is_stmt 0 view .LVU133
 456 019c 77EEE97A 		vsub.f32	s15, s15, s19
ARM GAS  /tmp/ccWzecem.s 			page 9


 457 01a0 E4E7     		b	.L24
 458              	.LVL28:
 459              	.L5:
 460              		.loc 2 75 44 view .LVU134
 461              	.LBE100:
 462              	.LBE103:
 463              	.LBE106:
 464              	.LBE80:
 465              		.loc 1 36 1 view .LVU135
 466 01a2 BDEC068B 		vldm	sp!, {d8-d10}
 467              		.cfi_restore 84
 468              		.cfi_restore 85
 469              		.cfi_restore 82
 470              		.cfi_restore 83
 471              		.cfi_restore 80
 472              		.cfi_restore 81
 473              		.cfi_def_cfa_offset 16
 474 01a6 70BD     		pop	{r4, r5, r6, pc}
 475              	.L26:
 476              		.align	2
 477              	.L25:
 478 01a8 00000000 		.word	.LANCHOR0
 479 01ac 00000000 		.word	.LANCHOR1
 480 01b0 00401C46 		.word	1176256512
 481 01b4 DB0FC940 		.word	1086918619
 482 01b8 00007A44 		.word	1148846080
 483 01bc 00000000 		.word	0
 484              		.cfi_endproc
 485              	.LFE476:
 486              		.size	_hook_cycle, .-_hook_cycle
 487              		.align	1
 488              		.global	_hook_on
 489              		.syntax unified
 490              		.thumb
 491              		.thumb_func
 492              		.fpu fpv4-sp-d16
 493              		.type	_hook_on, %function
 494              	_hook_on:
 495              	.LVL29:
 496              	.LFB477:
 497              		.loc 1 39 1 is_stmt 1 view -0
 498              		.cfi_startproc
 499              		@ args = 0, pretend = 0, frame = 0
 500              		@ frame_needed = 0, uses_anonymous_args = 0
 501              		@ link register save eliminated.
 502              		.loc 1 40 3 view .LVU137
 503              	.LBB107:
 504              	.LBI107:
 505              		.loc 2 41 10 view .LVU138
 506              	.LBB108:
 507              		.loc 2 43 9 view .LVU139
 508              		.loc 2 43 17 is_stmt 0 view .LVU140
 509 01c0 024B     		ldr	r3, .L28
 510 01c2 0022     		movs	r2, #0
 511 01c4 9A61     		str	r2, [r3, #24]	@ float
 512              		.loc 2 44 9 is_stmt 1 view .LVU141
 513              	.LBB109:
ARM GAS  /tmp/ccWzecem.s 			page 10


 514              	.LBI109:
 515              		.loc 4 11 8 view .LVU142
 516              	.LVL30:
 517              	.LBB110:
 518              		.loc 4 13 5 view .LVU143
 519              		.loc 4 13 21 is_stmt 0 view .LVU144
 520 01c6 5A62     		str	r2, [r3, #36]	@ float
 521              	.LVL31:
 522              		.loc 4 13 21 view .LVU145
 523              	.LBE110:
 524              	.LBE109:
 525              	.LBE108:
 526              	.LBE107:
 527              		.loc 1 41 1 view .LVU146
 528 01c8 7047     		bx	lr
 529              	.L29:
 530 01ca 00BF     		.align	2
 531              	.L28:
 532 01cc 00000000 		.word	.LANCHOR1
 533              		.cfi_endproc
 534              	.LFE477:
 535              		.size	_hook_on, .-_hook_on
 536              		.align	1
 537              		.global	_hook_off
 538              		.syntax unified
 539              		.thumb
 540              		.thumb_func
 541              		.fpu fpv4-sp-d16
 542              		.type	_hook_off, %function
 543              	_hook_off:
 544              	.LVL32:
 545              	.LFB478:
 546              		.loc 1 44 1 is_stmt 1 view -0
 547              		.cfi_startproc
 548              		@ args = 0, pretend = 0, frame = 0
 549              		@ frame_needed = 0, uses_anonymous_args = 0
 550              		@ link register save eliminated.
 551              		.loc 1 45 3 view .LVU148
 552              		.loc 1 46 1 is_stmt 0 view .LVU149
 553 01d0 7047     		bx	lr
 554              		.cfi_endproc
 555              	.LFE478:
 556              		.size	_hook_off, .-_hook_off
 557              		.align	1
 558              		.global	_hook_param
 559              		.syntax unified
 560              		.thumb
 561              		.thumb_func
 562              		.fpu fpv4-sp-d16
 563              		.type	_hook_param, %function
 564              	_hook_param:
 565              	.LVL33:
 566              	.LFB479:
 567              		.loc 1 49 1 is_stmt 1 view -0
 568              		.cfi_startproc
 569              		@ args = 0, pretend = 0, frame = 0
 570              		@ frame_needed = 0, uses_anonymous_args = 0
ARM GAS  /tmp/ccWzecem.s 			page 11


 571              		@ link register save eliminated.
 572              		.loc 1 50 3 view .LVU151
 573 01d2 0628     		cmp	r0, #6
 574              		.loc 1 49 1 is_stmt 0 view .LVU152
 575 01d4 07EE901A 		vmov	s15, r1	@ int
 576              		.loc 1 50 3 view .LVU153
 577 01d8 02D0     		beq	.L32
 578 01da 0728     		cmp	r0, #7
 579 01dc 10D0     		beq	.L33
 580 01de 7047     		bx	lr
 581              	.L32:
 582              		.loc 1 51 3 is_stmt 1 view .LVU154
 583              		.loc 1 53 5 view .LVU155
 584              		.loc 1 53 21 is_stmt 0 view .LVU156
 585 01e0 9FED0C7A 		vldr.32	s14, .L35
 586              		.loc 1 53 63 view .LVU157
 587 01e4 DFED0C6A 		vldr.32	s13, .L35+4
 588              		.loc 1 53 19 view .LVU158
 589 01e8 0C4B     		ldr	r3, .L35+8
 590              		.loc 1 53 21 view .LVU159
 591 01ea F8EEE77A 		vcvt.f32.s32	s15, s15
 592 01ee 67EE877A 		vmul.f32	s15, s15, s14
 593              		.loc 1 53 63 view .LVU160
 594 01f2 9FED0B7A 		vldr.32	s14, .L35+12
 595 01f6 A7EEA67A 		vfma.f32	s14, s15, s13
 596              		.loc 1 53 19 view .LVU161
 597 01fa 83ED007A 		vstr.32	s14, [r3]
 598              		.loc 1 54 5 is_stmt 1 view .LVU162
 599 01fe 7047     		bx	lr
 600              	.L33:
 601              		.loc 1 56 3 view .LVU163
 602              		.loc 1 58 5 view .LVU164
 603              		.loc 1 58 26 is_stmt 0 view .LVU165
 604 0200 F8EEE77A 		vcvt.f32.s32	s15, s15
 605 0204 9FED037A 		vldr.32	s14, .L35
 606              		.loc 1 58 24 view .LVU166
 607 0208 044B     		ldr	r3, .L35+8
 608              		.loc 1 58 26 view .LVU167
 609 020a 67EE877A 		vmul.f32	s15, s15, s14
 610              		.loc 1 58 24 view .LVU168
 611 020e C3ED017A 		vstr.32	s15, [r3, #4]
 612              		.loc 1 59 5 is_stmt 1 view .LVU169
 613              		.loc 1 64 1 is_stmt 0 view .LVU170
 614 0212 7047     		bx	lr
 615              	.L36:
 616              		.align	2
 617              	.L35:
 618 0214 0820803A 		.word	981475336
 619 0218 0080F244 		.word	1156743168
 620 021c 00000000 		.word	.LANCHOR0
 621 0220 00007042 		.word	1114636288
 622              		.cfi_endproc
 623              	.LFE479:
 624              		.size	_hook_param, .-_hook_param
 625              		.data
 626              		.align	2
 627              		.set	.LANCHOR1,. + 0
ARM GAS  /tmp/ccWzecem.s 			page 12


 628              		.type	_ZL5clock, %object
 629              		.size	_ZL5clock, 44
 630              	_ZL5clock:
 631 0000 00803B47 		.word	1195081728
 632 0004 00004842 		.word	1112014848
 633 0008 00000000 		.word	0
 634 000c 00000000 		.word	0
 635 0010 00007042 		.word	1114636288
 636 0014 00000000 		.word	0
 637 0018 00000000 		.word	0
 638 001c 920A063E 		.word	1040583314
 639 0020 00004842 		.word	1112014848
 640 0024 00000000 		.word	0
 641 0028 00803B47 		.word	1195081728
 642              		.bss
 643              		.align	2
 644              		.set	.LANCHOR0,. + 0
 645              		.type	_ZL7s_state, %object
 646              		.size	_ZL7s_state, 8
 647              	_ZL7s_state:
 648 0000 00000000 		.space	8
 648      00000000 
 649              		.text
 650              	.Letext0:
 651              		.file 6 "/usr/lib/gcc/arm-none-eabi/9.2.1/include/stdint.h"
 652              		.file 7 "/usr/include/newlib/c++/9.2.1/bits/cpp_type_traits.h"
 653              		.file 8 "/usr/include/newlib/c++/9.2.1/bits/std_abs.h"
 654              		.file 9 "/usr/include/newlib/c++/9.2.1/arm-none-eabi/thumb/v7e-m+fp/hard/bits/c++config.h"
 655              		.file 10 "/usr/lib/gcc/arm-none-eabi/9.2.1/include/stddef.h"
 656              		.file 11 "/usr/include/newlib/sys/_types.h"
 657              		.file 12 "/usr/include/newlib/sys/reent.h"
 658              		.file 13 "/usr/include/newlib/sys/lock.h"
 659              		.file 14 "/usr/include/newlib/math.h"
 660              		.file 15 "/usr/include/newlib/c++/9.2.1/math.h"
 661              		.file 16 "/usr/include/newlib/stdlib.h"
 662              		.file 17 "/workspace/ext/CMSIS/CMSIS/Include/arm_math.h"
 663              		.file 18 "/workspace/minilogue-xd/inc/userosc.h"
 664              		.file 19 "<built-in>"