ARM GAS  /tmp/ccKCcunK.s 			page 1


   1              		.cpu cortex-m4
   2              		.eabi_attribute 27, 1
   3              		.eabi_attribute 28, 1
   4              		.eabi_attribute 20, 1
   5              		.eabi_attribute 21, 1
   6              		.eabi_attribute 23, 3
   7              		.eabi_attribute 24, 1
   8              		.eabi_attribute 25, 1
   9              		.eabi_attribute 26, 1
  10              		.eabi_attribute 30, 4
  11              		.eabi_attribute 34, 1
  12              		.eabi_attribute 18, 4
  13              		.file	"Crickets.cpp"
  14              		.text
  15              	.Ltext0:
  16              		.cfi_sections	.debug_frame
  17              		.section	.text._ZN11ResFilterFM7processEf,"axG",%progbits,_ZN11ResFilterFM7processEf,comdat
  18              		.align	1
  19              		.weak	_ZN11ResFilterFM7processEf
  20              		.arch armv7e-m
  21              		.syntax unified
  22              		.thumb
  23              		.thumb_func
  24              		.fpu fpv4-sp-d16
  25              		.type	_ZN11ResFilterFM7processEf, %function
  26              	_ZN11ResFilterFM7processEf:
  27              	.LVL0:
  28              	.LFB466:
  29              		.file 1 "resFilterFM.hpp"
  30              		.loc 1 32 11 view -0
  31              		.cfi_startproc
  32              		@ args = 0, pretend = 0, frame = 0
  33              		@ frame_needed = 0, uses_anonymous_args = 0
  34              		.loc 1 34 9 view .LVU1
  35              		.loc 1 32 11 is_stmt 0 view .LVU2
  36 0000 10B5     		push	{r4, lr}
  37              		.cfi_def_cfa_offset 8
  38              		.cfi_offset 4, -8
  39              		.cfi_offset 14, -4
  40 0002 2DED088B 		vpush.64	{d8, d9, d10, d11}
  41              		.cfi_def_cfa_offset 40
  42              		.cfi_offset 80, -40
  43              		.cfi_offset 81, -36
  44              		.cfi_offset 82, -32
  45              		.cfi_offset 83, -28
  46              		.cfi_offset 84, -24
  47              		.cfi_offset 85, -20
  48              		.cfi_offset 86, -16
  49              		.cfi_offset 87, -12
  50              		.loc 1 34 27 view .LVU3
  51 0006 90ED009A 		vldr.32	s18, [r0]
  52              		.loc 1 34 25 view .LVU4
  53 000a 9FED32AA 		vldr.32	s20, .L2
  54              		.loc 1 34 36 view .LVU5
  55 000e D0ED0D7A 		vldr.32	s15, [r0, #52]
  56              		.loc 1 34 51 view .LVU6
  57 0012 D0ED029A 		vldr.32	s19, [r0, #8]
ARM GAS  /tmp/ccKCcunK.s 			page 2


  58              		.loc 1 35 58 view .LVU7
  59 0016 D0ED0EBA 		vldr.32	s23, [r0, #56]
  60              		.loc 1 34 25 view .LVU8
  61 001a 29EE0A8A 		vmul.f32	s16, s18, s20
  62              		.loc 1 32 11 view .LVU9
  63 001e F0EE40AA 		vmov.f32	s21, s0
  64              		.loc 1 34 36 view .LVU10
  65 0022 68EE277A 		vmul.f32	s15, s16, s15
  66              		.loc 1 35 58 view .LVU11
  67 0026 B0EE6B0A 		vmov.f32	s0, s23
  68              	.LVL1:
  69              		.loc 1 34 49 view .LVU12
  70 002a C7EEA98A 		vdiv.f32	s17, s15, s19
  71              		.loc 1 32 11 view .LVU13
  72 002e 0446     		mov	r4, r0
  73              		.loc 1 47 46 view .LVU14
  74 0030 39EE099A 		vadd.f32	s18, s18, s18
  75              		.loc 1 34 15 view .LVU15
  76 0034 C0ED048A 		vstr.32	s17, [r0, #16]
  77              		.loc 1 35 9 is_stmt 1 view .LVU16
  78              		.loc 1 35 58 is_stmt 0 view .LVU17
  79 0038 FFF7FEFF 		bl	sinf
  80              	.LVL2:
  81              		.loc 1 35 37 view .LVU18
  82 003c D4ED0C7A 		vldr.32	s15, [r4, #48]
  83 0040 A7EE808A 		vfma.f32	s16, s15, s0
  84              		.loc 1 44 18 view .LVU19
  85 0044 78EEAB8A 		vadd.f32	s17, s17, s23
  86              		.loc 1 35 71 view .LVU20
  87 0048 88EE29BA 		vdiv.f32	s22, s16, s19
  88              		.loc 1 36 16 view .LVU21
  89 004c 94ED058A 		vldr.32	s16, [r4, #20]
  90              		.loc 1 35 15 view .LVU22
  91 0050 84ED03BA 		vstr.32	s22, [r4, #12]
  92              		.loc 1 36 9 is_stmt 1 view .LVU23
  93              		.loc 1 36 26 is_stmt 0 view .LVU24
  94 0054 B0EE4B0A 		vmov.f32	s0, s22
  95 0058 FFF7FEFF 		bl	cosf
  96              	.LVL3:
  97              		.loc 1 36 20 view .LVU25
  98 005c 68EE009A 		vmul.f32	s19, s16, s0
  99              		.loc 1 37 26 view .LVU26
 100 0060 B0EE4B0A 		vmov.f32	s0, s22
 101              		.loc 1 36 14 view .LVU27
 102 0064 C4ED069A 		vstr.32	s19, [r4, #24]
 103              		.loc 1 37 9 is_stmt 1 view .LVU28
 104              		.loc 1 37 26 is_stmt 0 view .LVU29
 105 0068 FFF7FEFF 		bl	sinf
 106              	.LVL4:
 107              		.loc 1 40 20 view .LVU30
 108 006c D4ED096A 		vldr.32	s13, [r4, #36]
 109              		.loc 1 37 20 view .LVU31
 110 0070 68EE007A 		vmul.f32	s15, s16, s0
 111              		.loc 1 39 20 view .LVU32
 112 0074 94ED088A 		vldr.32	s16, [r4, #32]
 113              		.loc 1 37 14 view .LVU33
 114 0078 C4ED077A 		vstr.32	s15, [r4, #28]
ARM GAS  /tmp/ccKCcunK.s 			page 3


 115              		.loc 1 39 9 is_stmt 1 view .LVU34
 116              		.loc 1 41 35 is_stmt 0 view .LVU35
 117 007c 26EEE77A 		vnmul.f32	s14, s13, s15
 118              		.loc 1 39 18 view .LVU36
 119 0080 84ED0A8A 		vstr.32	s16, [r4, #40]
 120              		.loc 1 40 9 is_stmt 1 view .LVU37
 121              		.loc 1 41 35 is_stmt 0 view .LVU38
 122 0084 A9EE887A 		vfma.f32	s14, s19, s16
 123              		.loc 1 42 42 view .LVU39
 124 0088 27EE888A 		vmul.f32	s16, s15, s16
 125              		.loc 1 45 30 view .LVU40
 126 008c C8EE8A7A 		vdiv.f32	s15, s17, s20
 127              		.loc 1 41 52 view .LVU41
 128 0090 37EE2A0A 		vadd.f32	s0, s14, s21
 129              	.LBB72:
 130              	.LBB73:
 131              		.file 2 "/workspace/minilogue-xd/inc/utils/float_math.h"
 132              		.loc 2 296 18 view .LVU42
 133 0094 FCEEE77A 		vcvt.u32.f32	s15, s15
 134              	.LBE73:
 135              	.LBE72:
 136              		.loc 1 42 35 view .LVU43
 137 0098 A9EEA68A 		vfma.f32	s16, s19, s13
 138              	.LBB76:
 139              	.LBB74:
 140              		.loc 2 296 29 view .LVU44
 141 009c F8EE677A 		vcvt.f32.u32	s15, s15
 142              	.LBE74:
 143              	.LBE76:
 144              		.loc 1 41 18 view .LVU45
 145 00a0 84ED080A 		vstr.32	s0, [r4, #32]
 146              		.loc 1 45 18 view .LVU46
 147 00a4 E7EECA8A 		vfms.f32	s17, s15, s20
 148              		.loc 1 47 36 view .LVU47
 149 00a8 94ED010A 		vldr.32	s0, [r4, #4]
 150 00ac DFED0A7A 		vldr.32	s15, .L2+4
 151              		.loc 1 42 18 view .LVU48
 152 00b0 84ED098A 		vstr.32	s16, [r4, #36]
 153              		.loc 1 47 36 view .LVU49
 154 00b4 20EE270A 		vmul.f32	s0, s0, s15
 155              		.loc 1 45 18 view .LVU50
 156 00b8 C4ED0E8A 		vstr.32	s17, [r4, #56]
 157              		.loc 1 47 28 view .LVU51
 158 00bc 80EE090A 		vdiv.f32	s0, s0, s18
 159              		.loc 1 40 18 view .LVU52
 160 00c0 C4ED0B6A 		vstr.32	s13, [r4, #44]
 161              		.loc 1 41 9 is_stmt 1 view .LVU53
 162              		.loc 1 42 9 view .LVU54
 163              		.loc 1 44 9 view .LVU55
 164              		.loc 1 45 9 view .LVU56
 165              	.LBB77:
 166              	.LBI72:
 167              		.loc 2 294 7 view .LVU57
 168              	.LBB75:
 169              		.loc 2 296 3 view .LVU58
 170              	.LBE75:
 171              	.LBE77:
ARM GAS  /tmp/ccKCcunK.s 			page 4


 172              		.loc 1 47 9 view .LVU59
 173              		.loc 1 47 28 is_stmt 0 view .LVU60
 174 00c4 FFF7FEFF 		bl	expf
 175              	.LVL5:
 176              		.loc 1 48 5 view .LVU61
 177 00c8 28EE000A 		vmul.f32	s0, s16, s0
 178 00cc BDEC088B 		vldm	sp!, {d8-d11}
 179              		.cfi_restore 86
 180              		.cfi_restore 87
 181              		.cfi_restore 84
 182              		.cfi_restore 85
 183              		.cfi_restore 82
 184              		.cfi_restore 83
 185              		.cfi_restore 80
 186              		.cfi_restore 81
 187              		.cfi_def_cfa_offset 8
 188 00d0 10BD     		pop	{r4, pc}
 189              	.LVL6:
 190              	.L3:
 191              		.loc 1 48 5 view .LVU62
 192 00d2 00BF     		.align	2
 193              	.L2:
 194 00d4 DB0FC940 		.word	1086918619
 195 00d8 DB0F4940 		.word	1078530011
 196              		.cfi_endproc
 197              	.LFE466:
 198              		.size	_ZN11ResFilterFM7processEf, .-_ZN11ResFilterFM7processEf
 199              		.text
 200              		.align	1
 201              		.global	_hook_init
 202              		.syntax unified
 203              		.thumb
 204              		.thumb_func
 205              		.fpu fpv4-sp-d16
 206              		.type	_hook_init, %function
 207              	_hook_init:
 208              	.LVL7:
 209              	.LFB516:
 210              		.file 3 "Crickets.cpp"
 211              		.loc 3 68 1 is_stmt 1 view -0
 212              		.cfi_startproc
 213              		@ args = 0, pretend = 0, frame = 0
 214              		@ frame_needed = 0, uses_anonymous_args = 0
 215              		.loc 3 71 5 view .LVU64
 216              		.loc 3 71 25 is_stmt 0 view .LVU65
 217 0000 164B     		ldr	r3, .L5
 218              		.loc 3 76 25 view .LVU66
 219 0002 1749     		ldr	r1, .L5+4
 220              	.LVL8:
 221              		.loc 3 68 1 view .LVU67
 222 0004 10B5     		push	{r4, lr}
 223              		.cfi_def_cfa_offset 8
 224              		.cfi_offset 4, -8
 225              		.cfi_offset 14, -4
 226              		.loc 3 96 25 view .LVU68
 227 0006 0020     		movs	r0, #0
 228              	.LVL9:
ARM GAS  /tmp/ccKCcunK.s 			page 5


 229              		.loc 3 96 25 view .LVU69
 230 0008 2924     		movs	r4, #41
 231              		.loc 3 76 25 view .LVU70
 232 000a 1960     		str	r1, [r3]	@ float
 233              		.loc 3 96 25 view .LVU71
 234 000c C3E90904 		strd	r0, r4, [r3, #36]
 235              		.loc 3 79 25 view .LVU72
 236 0010 1449     		ldr	r1, .L5+8
 237              		.loc 3 97 25 view .LVU73
 238 0012 D862     		str	r0, [r3, #44]
 239              		.loc 3 98 25 view .LVU74
 240 0014 0720     		movs	r0, #7
 241              		.loc 3 79 25 view .LVU75
 242 0016 D960     		str	r1, [r3, #12]	@ float
 243              		.loc 3 98 25 view .LVU76
 244 0018 1863     		str	r0, [r3, #48]
 245              		.loc 3 82 25 view .LVU77
 246 001a 1349     		ldr	r1, .L5+12
 247              	.LBB78:
 248              	.LBB79:
 249              		.file 4 "/workspace/minilogue-xd/inc/dsp/biquad.hpp"
 250              		.loc 4 141 19 view .LVU78
 251 001c 1348     		ldr	r0, .L5+16
 252              	.LBE79:
 253              	.LBE78:
 254              		.loc 3 82 25 view .LVU79
 255 001e 1961     		str	r1, [r3, #16]	@ float
 256              	.LBB84:
 257              	.LBB80:
 258              		.loc 4 141 19 view .LVU80
 259 0020 1864     		str	r0, [r3, #64]	@ float
 260              	.LBE80:
 261              	.LBE84:
 262              		.loc 3 85 25 view .LVU81
 263 0022 1349     		ldr	r1, .L5+20
 264              	.LBB85:
 265              	.LBB81:
 266              		.loc 4 141 13 view .LVU82
 267 0024 D863     		str	r0, [r3, #60]	@ float
 268              		.loc 4 142 13 view .LVU83
 269 0026 1348     		ldr	r0, .L5+24
 270              	.LBE81:
 271              	.LBE85:
 272              		.loc 3 85 25 view .LVU84
 273 0028 5961     		str	r1, [r3, #20]	@ float
 274              	.LBB86:
 275              	.LBB82:
 276              		.loc 4 142 13 view .LVU85
 277 002a 9864     		str	r0, [r3, #72]	@ float
 278              	.LBE82:
 279              	.LBE86:
 280              		.loc 3 88 25 view .LVU86
 281 002c 1249     		ldr	r1, .L5+28
 282              	.LBB87:
 283              	.LBB88:
 284              		.loc 4 156 13 view .LVU87
 285 002e 1348     		ldr	r0, .L5+32
ARM GAS  /tmp/ccKCcunK.s 			page 6


 286              	.LBE88:
 287              	.LBE87:
 288              		.loc 3 88 25 view .LVU88
 289 0030 9961     		str	r1, [r3, #24]	@ float
 290              	.LBB93:
 291              	.LBB89:
 292              		.loc 4 156 13 view .LVU89
 293 0032 9865     		str	r0, [r3, #88]	@ float
 294              	.LBE89:
 295              	.LBE93:
 296              		.loc 3 91 25 view .LVU90
 297 0034 1249     		ldr	r1, .L5+36
 298              	.LBB94:
 299              	.LBB90:
 300              		.loc 4 157 13 view .LVU91
 301 0036 1348     		ldr	r0, .L5+40
 302              	.LBE90:
 303              	.LBE94:
 304              		.loc 3 91 25 view .LVU92
 305 0038 D961     		str	r1, [r3, #28]	@ float
 306              		.loc 3 71 25 view .LVU93
 307 003a 0022     		movs	r2, #0
 308              		.loc 3 94 25 view .LVU94
 309 003c 1249     		ldr	r1, .L5+44
 310              	.LBB95:
 311              	.LBB91:
 312              		.loc 4 157 13 view .LVU95
 313 003e D865     		str	r0, [r3, #92]	@ float
 314              		.loc 4 158 13 view .LVU96
 315 0040 1248     		ldr	r0, .L5+48
 316              	.LBE91:
 317              	.LBE95:
 318              		.loc 3 71 25 view .LVU97
 319 0042 5A63     		str	r2, [r3, #52]	@ float
 320              		.loc 3 72 5 is_stmt 1 view .LVU98
 321              		.loc 3 72 25 is_stmt 0 view .LVU99
 322 0044 9A63     		str	r2, [r3, #56]	@ float
 323              		.loc 3 76 5 is_stmt 1 view .LVU100
 324              		.loc 3 77 5 view .LVU101
 325              		.loc 3 77 25 is_stmt 0 view .LVU102
 326 0046 5A60     		str	r2, [r3, #4]	@ float
 327              		.loc 3 78 5 is_stmt 1 view .LVU103
 328              		.loc 3 78 25 is_stmt 0 view .LVU104
 329 0048 9A60     		str	r2, [r3, #8]	@ float
 330              		.loc 3 79 5 is_stmt 1 view .LVU105
 331              		.loc 3 82 5 view .LVU106
 332              		.loc 3 85 5 view .LVU107
 333              		.loc 3 88 5 view .LVU108
 334              		.loc 3 91 5 view .LVU109
 335              		.loc 3 94 5 view .LVU110
 336              		.loc 3 94 25 is_stmt 0 view .LVU111
 337 004a 1962     		str	r1, [r3, #32]	@ float
 338              		.loc 3 95 5 is_stmt 1 view .LVU112
 339              		.loc 3 97 5 view .LVU113
 340              		.loc 3 98 5 view .LVU114
 341              		.loc 3 101 5 view .LVU115
 342              	.LVL10:
ARM GAS  /tmp/ccKCcunK.s 			page 7


 343              		.loc 4 90 9 view .LVU116
 344              	.LBB96:
 345              	.LBI78:
 346              		.loc 4 138 12 view .LVU117
 347              	.LBB83:
 348              		.loc 4 139 9 view .LVU118
 349              		.loc 4 140 9 view .LVU119
 350              		.loc 4 141 9 view .LVU120
 351              		.loc 4 142 9 view .LVU121
 352              		.loc 4 143 9 view .LVU122
 353              		.loc 4 143 19 is_stmt 0 view .LVU123
 354 004c 5A64     		str	r2, [r3, #68]	@ float
 355              		.loc 4 143 13 view .LVU124
 356 004e DA64     		str	r2, [r3, #76]	@ float
 357              	.LVL11:
 358              		.loc 4 143 13 view .LVU125
 359              	.LBE83:
 360              	.LBE96:
 361              		.loc 3 104 5 is_stmt 1 view .LVU126
 362              		.loc 4 90 9 view .LVU127
 363              	.LBB97:
 364              	.LBI87:
 365              		.loc 4 152 12 view .LVU128
 366              	.LBB92:
 367              		.loc 4 154 9 view .LVU129
 368              		.loc 4 155 9 view .LVU130
 369              		.loc 4 156 9 view .LVU131
 370              		.loc 4 157 9 view .LVU132
 371              		.loc 4 158 9 view .LVU133
 372              		.loc 4 158 13 is_stmt 0 view .LVU134
 373 0050 5866     		str	r0, [r3, #100]	@ float
 374              		.loc 4 159 9 is_stmt 1 view .LVU135
 375              		.loc 4 159 19 is_stmt 0 view .LVU136
 376 0052 1A66     		str	r2, [r3, #96]	@ float
 377              		.loc 4 159 13 view .LVU137
 378 0054 9A66     		str	r2, [r3, #104]	@ float
 379              	.LVL12:
 380              		.loc 4 159 13 view .LVU138
 381              	.LBE92:
 382              	.LBE97:
 383              		.loc 3 107 5 is_stmt 1 view .LVU139
 384              	.LBB98:
 385              	.LBI98:
 386              		.file 5 "Metro.hpp"
 387              		.loc 5 23 8 view .LVU140
 388              	.LBB99:
 389              		.loc 5 25 5 view .LVU141
 390              		.loc 5 25 18 is_stmt 0 view .LVU142
 391 0056 0E4B     		ldr	r3, .L5+52
 392 0058 1960     		str	r1, [r3]	@ float
 393              	.LVL13:
 394              		.loc 5 25 18 view .LVU143
 395              	.LBE99:
 396              	.LBE98:
 397              		.loc 3 109 1 view .LVU144
 398 005a 10BD     		pop	{r4, pc}
 399              	.L6:
ARM GAS  /tmp/ccKCcunK.s 			page 8


 400              		.align	2
 401              	.L5:
 402 005c 00000000 		.word	.LANCHOR0
 403 0060 0000A041 		.word	1101004800
 404 0064 00005643 		.word	1129709568
 405 0068 00A08C45 		.word	1166843904
 406 006c 39C1813E 		.word	1048691001
 407 0070 00308E45 		.word	1166946304
 408 0074 8D7DFCBE 		.word	-1090749043
 409 0078 00C08F45 		.word	1167048704
 410 007c 9DE6493F 		.word	1061807773
 411 0080 00A00C46 		.word	1175232512
 412 0084 9DE649BF 		.word	-1085675875
 413 0088 00008841 		.word	1099431936
 414 008c 3ACD13BF 		.word	-1089221318
 415 0090 00000000 		.word	.LANCHOR1
 416              		.cfi_endproc
 417              	.LFE516:
 418              		.size	_hook_init, .-_hook_init
 419              		.align	1
 420              		.global	_hook_cycle
 421              		.syntax unified
 422              		.thumb
 423              		.thumb_func
 424              		.fpu fpv4-sp-d16
 425              		.type	_hook_cycle, %function
 426              	_hook_cycle:
 427              	.LVL14:
 428              	.LFB517:
 429              		.loc 3 114 1 is_stmt 1 view -0
 430              		.cfi_startproc
 431              		@ args = 0, pretend = 0, frame = 0
 432              		@ frame_needed = 0, uses_anonymous_args = 0
 433              		.loc 3 117 5 view .LVU146
 434              		.loc 3 114 1 is_stmt 0 view .LVU147
 435 0094 2DE9F84F 		push	{r3, r4, r5, r6, r7, r8, r9, r10, fp, lr}
 436              		.cfi_def_cfa_offset 40
 437              		.cfi_offset 3, -40
 438              		.cfi_offset 4, -36
 439              		.cfi_offset 5, -32
 440              		.cfi_offset 6, -28
 441              		.cfi_offset 7, -24
 442              		.cfi_offset 8, -20
 443              		.cfi_offset 9, -16
 444              		.cfi_offset 10, -12
 445              		.cfi_offset 11, -8
 446              		.cfi_offset 14, -4
 447              		.loc 3 124 65 view .LVU148
 448 0098 8388     		ldrh	r3, [r0, #4]
 449              		.loc 3 117 11 view .LVU149
 450 009a A94D     		ldr	r5, .L16
 451              	.LBB130:
 452              	.LBB131:
 453              		.loc 1 52 15 view .LVU150
 454 009c A94C     		ldr	r4, .L16+4
 455              	.LBE131:
 456              	.LBE130:
ARM GAS  /tmp/ccKCcunK.s 			page 9


 457              		.loc 3 128 22 view .LVU151
 458 009e D5ED047A 		vldr.32	s15, [r5, #16]
 459              	.LBB139:
 460              	.LBB132:
 461              		.loc 1 56 15 view .LVU152
 462 00a2 D4ED050A 		vldr.32	s1, [r4, #20]
 463              	.LBE132:
 464              	.LBE139:
 465              		.loc 3 122 11 view .LVU153
 466 00a6 D5F80480 		ldr	r8, [r5, #4]	@ float
 467              		.loc 3 123 11 view .LVU154
 468 00aa AF68     		ldr	r7, [r5, #8]	@ float
 469              	.LBB140:
 470              	.LBB133:
 471              		.loc 1 56 15 view .LVU155
 472 00ac 9FEDA60A 		vldr.32	s0, .L16+8
 473              		.loc 1 54 19 view .LVU156
 474 00b0 C4F83C80 		str	r8, [r4, #60]	@ float
 475              	.LBE133:
 476              	.LBE140:
 477              		.loc 3 124 71 view .LVU157
 478 00b4 1B12     		asrs	r3, r3, #8
 479              	.LBB141:
 480              	.LBB142:
 481              		.file 6 "/workspace/minilogue-xd/inc/osc_api.h"
 482              		.loc 6 115 65 view .LVU158
 483 00b6 972B     		cmp	r3, #151
 484              	.LBE142:
 485              	.LBE141:
 486              		.loc 3 114 1 view .LVU159
 487 00b8 9146     		mov	r9, r2
 488              	.LBB147:
 489              	.LBB143:
 490              		.loc 6 115 65 view .LVU160
 491 00ba A44A     		ldr	r2, .L16+12
 492              	.LVL15:
 493              		.loc 6 115 65 view .LVU161
 494              	.LBE143:
 495              	.LBE147:
 496              	.LBB148:
 497              	.LBB134:
 498              		.loc 1 55 18 view .LVU162
 499 00bc 2764     		str	r7, [r4, #64]	@ float
 500              	.LBE134:
 501              	.LBE148:
 502              	.LBB149:
 503              	.LBB144:
 504              		.loc 6 115 65 view .LVU163
 505 00be 28BF     		it	cs
 506 00c0 9723     		movcs	r3, #151
 507 00c2 02EB8303 		add	r3, r2, r3, lsl #2
 508              	.LBE144:
 509              	.LBE149:
 510              		.loc 3 114 1 view .LVU164
 511 00c6 2DED088B 		vpush.64	{d8, d9, d10, d11}
 512              		.cfi_def_cfa_offset 72
 513              		.cfi_offset 80, -72
ARM GAS  /tmp/ccKCcunK.s 			page 10


 514              		.cfi_offset 81, -68
 515              		.cfi_offset 82, -64
 516              		.cfi_offset 83, -60
 517              		.cfi_offset 84, -56
 518              		.cfi_offset 85, -52
 519              		.cfi_offset 86, -48
 520              		.cfi_offset 87, -44
 521              	.LBB150:
 522              	.LBB145:
 523              		.loc 6 115 65 view .LVU165
 524 00ca D3ED00AA 		vldr.32	s21, [r3]
 525              	.LBE145:
 526              	.LBE150:
 527              		.loc 3 117 11 view .LVU166
 528 00ce 95ED0D8A 		vldr.32	s16, [r5, #52]
 529              	.LVL16:
 530              		.loc 3 118 5 is_stmt 1 view .LVU167
 531              		.loc 3 121 5 view .LVU168
 532              		.loc 3 121 11 is_stmt 0 view .LVU169
 533 00d2 D5ED009A 		vldr.32	s19, [r5]
 534              	.LVL17:
 535              		.loc 3 122 5 is_stmt 1 view .LVU170
 536              		.loc 3 123 5 view .LVU171
 537              		.loc 3 124 5 view .LVU172
 538              	.LBB151:
 539              	.LBI141:
 540              		.loc 6 114 23 view .LVU173
 541              	.LBB146:
 542              		.loc 6 115 5 view .LVU174
 543              		.loc 6 115 5 is_stmt 0 view .LVU175
 544              	.LBE146:
 545              	.LBE151:
 546              		.file 7 "/workspace/minilogue-xd/inc/utils/int_math.h"
 547              		.loc 7 85 3 is_stmt 1 view .LVU176
 548              		.loc 3 124 42 is_stmt 0 view .LVU177
 549 00d6 C5ED03AA 		vstr.32	s21, [r5, #12]
 550              	.LVL18:
 551              		.loc 3 127 5 is_stmt 1 view .LVU178
 552              		.loc 3 128 5 view .LVU179
 553              		.loc 3 128 31 is_stmt 0 view .LVU180
 554 00da B7EE00BA 		vmov.f32	s22, #1.0e+0
 555              		.loc 3 128 44 view .LVU181
 556 00de 68EE2A8A 		vmul.f32	s17, s16, s21
 557              		.loc 3 128 31 view .LVU182
 558 00e2 3BEE489A 		vsub.f32	s18, s22, s16
 559              		.loc 3 128 22 view .LVU183
 560 00e6 B0EE687A 		vmov.f32	s14, s17
 561 00ea A9EE277A 		vfma.f32	s14, s18, s15
 562              	.LVL19:
 563              	.LBB152:
 564              	.LBI130:
 565              		.loc 1 50 10 is_stmt 1 view .LVU184
 566              	.LBB135:
 567              		.loc 1 52 7 view .LVU185
 568              	.LBE135:
 569              	.LBE152:
 570              		.loc 3 114 1 is_stmt 0 view .LVU186
ARM GAS  /tmp/ccKCcunK.s 			page 11


 571 00ee 0E46     		mov	r6, r1
 572              	.LBB153:
 573              	.LBB154:
 574              		.loc 5 25 18 view .LVU187
 575 00f0 04F10C0A 		add	r10, r4, #12
 576              	.LBE154:
 577              	.LBE153:
 578              	.LBB156:
 579              	.LBB136:
 580              		.loc 1 56 21 view .LVU188
 581 00f4 B1EE69AA 		vneg.f32	s20, s19
 582              		.loc 1 56 15 view .LVU189
 583 00f8 CAEE200A 		vdiv.f32	s1, s20, s1
 584 00fc 06EB8909 		add	r9, r6, r9, lsl #2
 585              	.LVL20:
 586              		.loc 1 56 15 view .LVU190
 587              	.LBE136:
 588              	.LBE156:
 589              	.LBB157:
 590              		.loc 3 186 51 view .LVU191
 591 0100 04F1480B 		add	fp, r4, #72
 592              	.LBE157:
 593              	.LBB180:
 594              	.LBB137:
 595              		.loc 1 52 15 view .LVU192
 596 0104 C4ED049A 		vstr.32	s19, [r4, #16]
 597              		.loc 1 53 7 is_stmt 1 view .LVU193
 598              		.loc 1 53 16 is_stmt 0 view .LVU194
 599 0108 84ED037A 		vstr.32	s14, [r4, #12]
 600              		.loc 1 54 7 is_stmt 1 view .LVU195
 601              		.loc 1 55 7 view .LVU196
 602              		.loc 1 56 7 view .LVU197
 603              		.loc 1 56 15 is_stmt 0 view .LVU198
 604 010c FFF7FEFF 		bl	powf
 605              	.LVL21:
 606              		.loc 1 56 15 view .LVU199
 607              	.LBE137:
 608              	.LBE180:
 609              		.loc 3 132 44 view .LVU200
 610 0110 F1EE007A 		vmov.f32	s15, #4.0e+0
 611 0114 68EE277A 		vmul.f32	s15, s16, s15
 612              		.loc 3 132 22 view .LVU201
 613 0118 95ED057A 		vldr.32	s14, [r5, #20]
 614              	.LBB181:
 615              	.LBB182:
 616              		.loc 1 56 15 view .LVU202
 617 011c D4ED140A 		vldr.32	s1, [r4, #80]
 618              	.LBE182:
 619              	.LBE181:
 620              	.LBB186:
 621              	.LBB138:
 622              		.loc 1 56 10 view .LVU203
 623 0120 84ED080A 		vstr.32	s0, [r4, #32]
 624              	.LVL22:
 625              		.loc 1 56 10 view .LVU204
 626              	.LBE138:
 627              	.LBE186:
ARM GAS  /tmp/ccKCcunK.s 			page 12


 628              		.loc 3 131 5 is_stmt 1 view .LVU205
 629              		.loc 3 132 5 view .LVU206
 630              		.loc 3 132 48 is_stmt 0 view .LVU207
 631 0124 67EEAA7A 		vmul.f32	s15, s15, s21
 632              	.LBB187:
 633              	.LBB183:
 634              		.loc 1 56 15 view .LVU208
 635 0128 CAEE200A 		vdiv.f32	s1, s20, s1
 636              		.loc 1 54 19 view .LVU209
 637 012c C4F87880 		str	r8, [r4, #120]	@ float
 638              		.loc 1 55 18 view .LVU210
 639 0130 E767     		str	r7, [r4, #124]	@ float
 640              	.LBE183:
 641              	.LBE187:
 642              		.loc 3 132 22 view .LVU211
 643 0132 E9EE077A 		vfma.f32	s15, s18, s14
 644              	.LVL23:
 645              	.LBB188:
 646              	.LBI181:
 647              		.loc 1 50 10 is_stmt 1 view .LVU212
 648              	.LBB184:
 649              		.loc 1 52 7 view .LVU213
 650              		.loc 1 56 15 is_stmt 0 view .LVU214
 651 0136 9FED840A 		vldr.32	s0, .L16+8
 652              		.loc 1 52 15 view .LVU215
 653 013a C4ED139A 		vstr.32	s19, [r4, #76]
 654              		.loc 1 53 7 is_stmt 1 view .LVU216
 655              		.loc 1 53 16 is_stmt 0 view .LVU217
 656 013e C4ED127A 		vstr.32	s15, [r4, #72]
 657              		.loc 1 54 7 is_stmt 1 view .LVU218
 658              		.loc 1 55 7 view .LVU219
 659              		.loc 1 56 7 view .LVU220
 660              		.loc 1 56 15 is_stmt 0 view .LVU221
 661 0142 FFF7FEFF 		bl	powf
 662              	.LVL24:
 663              		.loc 1 56 15 view .LVU222
 664              	.LBE184:
 665              	.LBE188:
 666              		.loc 3 136 44 view .LVU223
 667 0146 F2EE027A 		vmov.f32	s15, #9.0e+0
 668 014a 68EE277A 		vmul.f32	s15, s16, s15
 669              		.loc 3 136 22 view .LVU224
 670 014e 95ED067A 		vldr.32	s14, [r5, #24]
 671              	.LBB189:
 672              	.LBB190:
 673              		.loc 1 56 15 view .LVU225
 674 0152 D4ED230A 		vldr.32	s1, [r4, #140]
 675              	.LBE190:
 676              	.LBE189:
 677              	.LBB194:
 678              	.LBB185:
 679              		.loc 1 56 10 view .LVU226
 680 0156 84ED170A 		vstr.32	s0, [r4, #92]
 681              	.LVL25:
 682              		.loc 1 56 10 view .LVU227
 683              	.LBE185:
 684              	.LBE194:
ARM GAS  /tmp/ccKCcunK.s 			page 13


 685              		.loc 3 135 5 is_stmt 1 view .LVU228
 686              		.loc 3 136 5 view .LVU229
 687              		.loc 3 136 48 is_stmt 0 view .LVU230
 688 015a 67EEAA7A 		vmul.f32	s15, s15, s21
 689              	.LBB195:
 690              	.LBB191:
 691              		.loc 1 56 15 view .LVU231
 692 015e CAEE200A 		vdiv.f32	s1, s20, s1
 693              		.loc 1 54 19 view .LVU232
 694 0162 C4F8B480 		str	r8, [r4, #180]	@ float
 695              		.loc 1 55 18 view .LVU233
 696 0166 C4F8B870 		str	r7, [r4, #184]	@ float
 697              	.LBE191:
 698              	.LBE195:
 699              		.loc 3 136 22 view .LVU234
 700 016a E9EE077A 		vfma.f32	s15, s18, s14
 701              	.LVL26:
 702              	.LBB196:
 703              	.LBI189:
 704              		.loc 1 50 10 is_stmt 1 view .LVU235
 705              	.LBB192:
 706              		.loc 1 52 7 view .LVU236
 707              		.loc 1 56 15 is_stmt 0 view .LVU237
 708 016e 9FED760A 		vldr.32	s0, .L16+8
 709              		.loc 1 52 15 view .LVU238
 710 0172 C4ED229A 		vstr.32	s19, [r4, #136]
 711              		.loc 1 53 7 is_stmt 1 view .LVU239
 712              		.loc 1 53 16 is_stmt 0 view .LVU240
 713 0176 C4ED217A 		vstr.32	s15, [r4, #132]
 714              		.loc 1 54 7 is_stmt 1 view .LVU241
 715              		.loc 1 55 7 view .LVU242
 716              		.loc 1 56 7 view .LVU243
 717              		.loc 1 56 15 is_stmt 0 view .LVU244
 718 017a FFF7FEFF 		bl	powf
 719              	.LVL27:
 720              		.loc 1 56 15 view .LVU245
 721              	.LBE192:
 722              	.LBE196:
 723              		.loc 3 141 44 view .LVU246
 724 017e F3EE007A 		vmov.f32	s15, #1.6e+1
 725 0182 28EE278A 		vmul.f32	s16, s16, s15
 726              	.LVL28:
 727              		.loc 3 141 22 view .LVU247
 728 0186 D5ED077A 		vldr.32	s15, [r5, #28]
 729              	.LBB197:
 730              	.LBB198:
 731              		.loc 1 56 15 view .LVU248
 732 018a D4ED320A 		vldr.32	s1, [r4, #200]
 733              	.LBE198:
 734              	.LBE197:
 735              	.LBB202:
 736              	.LBB193:
 737              		.loc 1 56 10 view .LVU249
 738 018e 84ED260A 		vstr.32	s0, [r4, #152]
 739              	.LVL29:
 740              		.loc 1 56 10 view .LVU250
 741              	.LBE193:
ARM GAS  /tmp/ccKCcunK.s 			page 14


 742              	.LBE202:
 743              		.loc 3 140 5 is_stmt 1 view .LVU251
 744              		.loc 3 141 5 view .LVU252
 745              		.loc 3 141 49 is_stmt 0 view .LVU253
 746 0192 28EE2A8A 		vmul.f32	s16, s16, s21
 747              	.LBB203:
 748              	.LBB199:
 749              		.loc 1 56 15 view .LVU254
 750 0196 CAEE200A 		vdiv.f32	s1, s20, s1
 751              		.loc 1 54 19 view .LVU255
 752 019a C4F8F080 		str	r8, [r4, #240]	@ float
 753              		.loc 1 55 18 view .LVU256
 754 019e C4F8F470 		str	r7, [r4, #244]	@ float
 755              	.LBE199:
 756              	.LBE203:
 757              		.loc 3 141 22 view .LVU257
 758 01a2 A9EE278A 		vfma.f32	s16, s18, s15
 759              	.LVL30:
 760              	.LBB204:
 761              	.LBI197:
 762              		.loc 1 50 10 is_stmt 1 view .LVU258
 763              	.LBB200:
 764              		.loc 1 52 7 view .LVU259
 765              		.loc 1 56 15 is_stmt 0 view .LVU260
 766 01a6 9FED680A 		vldr.32	s0, .L16+8
 767              		.loc 1 52 15 view .LVU261
 768 01aa C4ED319A 		vstr.32	s19, [r4, #196]
 769              		.loc 1 53 7 is_stmt 1 view .LVU262
 770              		.loc 1 53 16 is_stmt 0 view .LVU263
 771 01ae 84ED308A 		vstr.32	s16, [r4, #192]
 772              		.loc 1 54 7 is_stmt 1 view .LVU264
 773              		.loc 1 55 7 view .LVU265
 774              		.loc 1 56 7 view .LVU266
 775              		.loc 1 56 15 is_stmt 0 view .LVU267
 776 01b2 FFF7FEFF 		bl	powf
 777              	.LVL31:
 778              		.loc 1 56 15 view .LVU268
 779              	.LBE200:
 780              	.LBE204:
 781              		.loc 3 144 61 view .LVU269
 782 01b6 DFED667A 		vldr.32	s15, .L16+16
 783              	.LBB205:
 784              	.LBB201:
 785              		.loc 1 56 10 view .LVU270
 786 01ba 84ED350A 		vstr.32	s0, [r4, #212]
 787              	.LVL32:
 788              		.loc 1 56 10 view .LVU271
 789              	.LBE201:
 790              	.LBE205:
 791              		.loc 3 144 5 is_stmt 1 view .LVU272
 792              		.loc 3 144 61 is_stmt 0 view .LVU273
 793 01be B0EE680A 		vmov.f32	s0, s17
 794 01c2 A9EE270A 		vfma.f32	s0, s18, s15
 795              	.LVL33:
 796              	.LBB206:
 797              	.LBI206:
 798              		.loc 2 395 7 is_stmt 1 view .LVU274
ARM GAS  /tmp/ccKCcunK.s 			page 15


 799              	.LBE206:
 800              		.loc 2 396 3 view .LVU275
 801              	.LBB217:
 802              	.LBB207:
 803              	.LBI207:
 804              		.loc 2 323 7 view .LVU276
 805              	.LBB208:
 806              		.loc 2 325 3 view .LVU277
 807              	.LBB209:
 808              	.LBI209:
 809              		.loc 2 192 7 view .LVU278
 810              	.LBB210:
 811              		.loc 2 193 3 view .LVU279
 812              	.LBE210:
 813              	.LBE209:
 814              		.loc 2 325 14 is_stmt 0 view .LVU280
 815 01c6 F3EE047A 		vmov.f32	s15, #2.0e+1
 816 01ca 30EE677A 		vsub.f32	s14, s0, s15
 817              	.LVL34:
 818              	.LBB213:
 819              	.LBB211:
 820              		.loc 2 193 19 view .LVU281
 821 01ce 9FED618A 		vldr.32	s16, .L16+20
 822              	.LBE211:
 823              	.LBE213:
 824              	.LBE208:
 825              	.LBE207:
 826              	.LBE217:
 827              	.LBB218:
 828              	.LBB158:
 829              	.LBB159:
 830              		.loc 5 18 32 view .LVU282
 831 01d2 9FED61AA 		vldr.32	s20, .L16+24
 832              	.LBE159:
 833              	.LBE158:
 834              	.LBE218:
 835              	.LBB219:
 836              	.LBB216:
 837              	.LBB215:
 838              	.LBB214:
 839              	.LBB212:
 840              		.loc 2 193 19 view .LVU283
 841 01d6 B4EEC87A 		vcmpe.f32	s14, s16
 842 01da F1EE10FA 		vmrs	APSR_nzcv, FPSCR
 843 01de B8BF     		it	lt
 844 01e0 B0EE670A 		vmovlt.f32	s0, s15
 845              	.LVL35:
 846              		.loc 2 193 19 view .LVU284
 847              	.LBE212:
 848              	.LBE214:
 849              	.LBE215:
 850              	.LBE216:
 851              	.LBE219:
 852              	.LBB220:
 853              	.LBI220:
 854              		.loc 4 89 13 is_stmt 1 view .LVU285
 855              	.LBB221:
ARM GAS  /tmp/ccKCcunK.s 			page 16


 856              		.loc 4 90 9 view .LVU286
 857              		.loc 4 90 21 is_stmt 0 view .LVU287
 858 01e4 DFED5D7A 		vldr.32	s15, .L16+28
 859 01e8 20EE270A 		vmul.f32	s0, s0, s15
 860              	.LBE221:
 861              	.LBE220:
 862              		.loc 3 144 29 view .LVU288
 863 01ec DFED5C7A 		vldr.32	s15, .L16+32
 864 01f0 20EE270A 		vmul.f32	s0, s0, s15
 865 01f4 FFF7FEFF 		bl	tanf
 866              	.LVL36:
 867              	.LBB222:
 868              	.LBI222:
 869              		.loc 4 152 12 is_stmt 1 view .LVU289
 870              	.LBB223:
 871              		.loc 4 154 9 view .LVU290
 872              		.loc 4 154 21 is_stmt 0 view .LVU291
 873 01f8 30EE0B7A 		vadd.f32	s14, s0, s22
 874              	.LVL37:
 875              		.loc 4 155 9 is_stmt 1 view .LVU292
 876              		.loc 4 156 9 view .LVU293
 877              		.loc 4 155 21 is_stmt 0 view .LVU294
 878 01fc 30EE4B0A 		vsub.f32	s0, s0, s22
 879              	.LVL38:
 880              		.loc 4 156 19 view .LVU295
 881 0200 CBEE077A 		vdiv.f32	s15, s22, s14
 882              	.LBE223:
 883              	.LBE222:
 884              		.loc 3 149 9 view .LVU296
 885 0204 D5E90978 		ldrd	r7, r8, [r5, #36]
 886              	.LVL39:
 887              		.loc 3 147 11 view .LVU297
 888 0208 D5ED086A 		vldr.32	s13, [r5, #32]
 889              	.LBB228:
 890              	.LBB224:
 891              		.loc 4 156 13 view .LVU298
 892 020c C5ED167A 		vstr.32	s15, [r5, #88]
 893              		.loc 4 157 9 is_stmt 1 view .LVU299
 894              		.loc 4 157 15 is_stmt 0 view .LVU300
 895 0210 F1EE677A 		vneg.f32	s15, s15
 896              		.loc 4 157 13 view .LVU301
 897 0214 C5ED177A 		vstr.32	s15, [r5, #92]
 898              		.loc 4 158 9 is_stmt 1 view .LVU302
 899              		.loc 4 158 19 is_stmt 0 view .LVU303
 900 0218 C0EE077A 		vdiv.f32	s15, s0, s14
 901              	.LBE224:
 902              	.LBE228:
 903              		.loc 3 151 56 view .LVU304
 904 021c 9FED517A 		vldr.32	s14, .L16+36
 905              	.LVL40:
 906              	.LBB229:
 907              	.LBB225:
 908              		.loc 4 158 13 view .LVU305
 909 0220 C5ED197A 		vstr.32	s15, [r5, #100]
 910              		.loc 4 159 9 is_stmt 1 view .LVU306
 911              	.LBE225:
 912              	.LBE229:
ARM GAS  /tmp/ccKCcunK.s 			page 17


 913              		.loc 3 151 56 is_stmt 0 view .LVU307
 914 0224 F1EE0C7A 		vmov.f32	s15, #7.0e+0
 915 0228 E6EE877A 		vfma.f32	s15, s13, s14
 916              		.loc 3 151 45 view .LVU308
 917 022c 95ED0C7A 		vldr.32	s14, [r5, #48]	@ int
 918              	.LBB230:
 919              	.LBB226:
 920              		.loc 4 159 19 view .LVU309
 921 0230 85ED188A 		vstr.32	s16, [r5, #96]
 922              	.LBE226:
 923              	.LBE230:
 924              	.LBB231:
 925              	.LBB232:
 926              		.loc 2 296 18 view .LVU310
 927 0234 FCEEE77A 		vcvt.u32.f32	s15, s15
 928              	.LBE232:
 929              	.LBE231:
 930              		.loc 3 151 45 view .LVU311
 931 0238 B8EEC77A 		vcvt.f32.s32	s14, s14
 932              	.LBB235:
 933              	.LBB233:
 934              		.loc 2 296 29 view .LVU312
 935 023c F8EE677A 		vcvt.f32.u32	s15, s15
 936              	.LBE233:
 937              	.LBE235:
 938              	.LBB236:
 939              	.LBB227:
 940              		.loc 4 159 13 view .LVU313
 941 0240 85ED1A8A 		vstr.32	s16, [r5, #104]
 942              	.LVL41:
 943              		.loc 4 159 13 view .LVU314
 944              	.LBE227:
 945              	.LBE236:
 946              		.loc 3 147 5 is_stmt 1 view .LVU315
 947              		.loc 3 148 5 view .LVU316
 948              		.loc 3 150 5 view .LVU317
 949              		.loc 3 151 5 view .LVU318
 950              	.LBB237:
 951              	.LBI231:
 952              		.loc 2 294 7 view .LVU319
 953              	.LBB234:
 954              		.loc 2 296 3 view .LVU320
 955              	.LBE234:
 956              	.LBE237:
 957              		.loc 3 151 45 is_stmt 0 view .LVU321
 958 0244 77EE277A 		vadd.f32	s15, s14, s15
 959              		.loc 3 152 24 view .LVU322
 960 0248 9FED477A 		vldr.32	s14, .L16+40
 961              		.loc 3 151 74 view .LVU323
 962 024c FDEEE79A 		vcvt.s32.f32	s19, s15
 963              	.LVL42:
 964              		.loc 3 152 5 is_stmt 1 view .LVU324
 965              		.loc 3 152 24 is_stmt 0 view .LVU325
 966 0250 F3EE017A 		vmov.f32	s15, #1.7e+1
 967 0254 E6EE877A 		vfma.f32	s15, s13, s14
 968              	.LVL43:
 969              	.LBB238:
ARM GAS  /tmp/ccKCcunK.s 			page 18


 970              	.LBI153:
 971              		.loc 5 23 8 is_stmt 1 view .LVU326
 972              	.LBB155:
 973              		.loc 5 25 5 view .LVU327
 974              		.loc 5 25 18 is_stmt 0 view .LVU328
 975 0258 C4ED007A 		vstr.32	s15, [r4]
 976              	.LVL44:
 977              		.loc 5 25 18 view .LVU329
 978              	.LBE155:
 979              	.LBE238:
 980              		.loc 3 157 5 is_stmt 1 view .LVU330
 981              		.loc 3 158 5 view .LVU331
 982              		.loc 3 161 5 view .LVU332
 983              	.L13:
 984              	.LBB239:
 985              		.loc 3 161 33 discriminator 1 view .LVU333
 986 025c B145     		cmp	r9, r6
 987 025e 6AD0     		beq	.L7
 988              		.loc 3 165 9 view .LVU334
 989              	.LVL45:
 990              	.LBB163:
 991              	.LBI158:
 992              		.loc 5 15 9 view .LVU335
 993              	.LBB160:
 994              		.loc 5 17 5 view .LVU336
 995              		.loc 5 18 32 is_stmt 0 view .LVU337
 996 0260 D4ED026A 		vldr.32	s13, [r4, #8]
 997              		.loc 5 17 11 view .LVU338
 998 0264 94ED017A 		vldr.32	s14, [r4, #4]
 999              	.LVL46:
 1000              		.loc 5 18 5 is_stmt 1 view .LVU339
 1001              		.loc 5 18 32 is_stmt 0 view .LVU340
 1002 0268 CAEE267A 		vdiv.f32	s15, s20, s13
 1003              		.loc 5 19 5 view .LVU341
 1004 026c D4ED006A 		vldr.32	s13, [r4]
 1005              		.loc 5 18 21 view .LVU342
 1006 0270 77EE877A 		vadd.f32	s15, s15, s14
 1007              		.loc 5 19 5 is_stmt 1 view .LVU343
 1008              		.loc 5 20 23 is_stmt 0 view .LVU344
 1009 0274 F4EE667A 		vcmp.f32	s15, s13
 1010 0278 F1EE10FA 		vmrs	APSR_nzcv, FPSCR
 1011              	.LBE160:
 1012              	.LBE163:
 1013              		.loc 3 165 9 view .LVU345
 1014 027c B5EE407A 		vcmp.f32	s14, #0
 1015              	.LBB164:
 1016              	.LBB161:
 1017              		.loc 5 20 23 view .LVU346
 1018 0280 C8BF     		it	gt
 1019 0282 F0EE487A 		vmovgt.f32	s15, s16
 1020              	.LBE161:
 1021              	.LBE164:
 1022              		.loc 3 165 9 view .LVU347
 1023 0286 F1EE10FA 		vmrs	APSR_nzcv, FPSCR
 1024              	.LBB165:
 1025              	.LBB162:
 1026              		.loc 5 20 23 view .LVU348
ARM GAS  /tmp/ccKCcunK.s 			page 19


 1027 028a C4ED017A 		vstr.32	s15, [r4, #4]
 1028              		.loc 5 21 5 is_stmt 1 view .LVU349
 1029              	.LVL47:
 1030              		.loc 5 21 5 is_stmt 0 view .LVU350
 1031              	.LBE162:
 1032              	.LBE165:
 1033              		.loc 3 165 9 view .LVU351
 1034 028e 50D1     		bne	.L14
 1035              		.loc 3 167 13 is_stmt 1 view .LVU352
 1036              	.LVL48:
 1037              		.loc 3 167 13 is_stmt 0 view .LVU353
 1038 0290 0137     		adds	r7, r7, #1
 1039              	.LVL49:
 1040              		.loc 3 167 21 view .LVU354
 1041 0292 97FBF8F3 		sdiv	r3, r7, r8
 1042 0296 08FB1377 		mls	r7, r8, r3, r7
 1043              	.LVL50:
 1044              		.loc 3 169 13 is_stmt 1 view .LVU355
 1045 029a 19EE903A 		vmov	r3, s19	@ int
 1046 029e 9F42     		cmp	r7, r3
 1047 02a0 CCBF     		ite	gt
 1048 02a2 0023     		movgt	r3, #0
 1049 02a4 0123     		movle	r3, #1
 1050              	.L12:
 1051              	.LVL51:
 1052              		.loc 3 184 9 discriminator 2 view .LVU356
 1053              		.loc 3 185 32 is_stmt 0 discriminator 2 view .LVU357
 1054 02a6 07EE903A 		vmov	s15, r3	@ int
 1055              	.LBB166:
 1056              	.LBB167:
 1057              		.loc 4 385 13 discriminator 2 view .LVU358
 1058 02aa 95ED149A 		vldr.32	s18, [r5, #80]
 1059              		.loc 4 387 11 discriminator 2 view .LVU359
 1060 02ae D5ED106A 		vldr.32	s13, [r5, #64]
 1061              	.LBE167:
 1062              	.LBE166:
 1063              		.loc 3 184 23 discriminator 2 view .LVU360
 1064 02b2 6F62     		str	r7, [r5, #36]
 1065              		.loc 3 185 9 is_stmt 1 discriminator 2 view .LVU361
 1066              		.loc 3 185 32 is_stmt 0 discriminator 2 view .LVU362
 1067 02b4 B8EEE77A 		vcvt.f32.s32	s14, s15
 1068              	.LVL52:
 1069              	.LBB171:
 1070              	.LBI166:
 1071              		.loc 4 384 11 is_stmt 1 discriminator 2 view .LVU363
 1072              	.LBB168:
 1073              		.loc 4 385 7 discriminator 2 view .LVU364
 1074              		.loc 4 385 13 is_stmt 0 discriminator 2 view .LVU365
 1075 02b8 D5ED0F7A 		vldr.32	s15, [r5, #60]
 1076 02bc A7EE279A 		vfma.f32	s18, s14, s15
 1077              	.LVL53:
 1078              		.loc 4 386 7 is_stmt 1 discriminator 2 view .LVU366
 1079              		.loc 4 387 7 discriminator 2 view .LVU367
 1080              	.LBE168:
 1081              	.LBE171:
 1082              		.loc 3 186 29 is_stmt 0 discriminator 2 view .LVU368
 1083 02c0 5046     		mov	r0, r10
ARM GAS  /tmp/ccKCcunK.s 			page 20


 1084              	.LBB172:
 1085              	.LBB169:
 1086              		.loc 4 387 26 discriminator 2 view .LVU369
 1087 02c2 D5ED127A 		vldr.32	s15, [r5, #72]
 1088              		.loc 4 387 11 discriminator 2 view .LVU370
 1089 02c6 67EEC97A 		vnmul.f32	s15, s15, s18
 1090              	.LBE169:
 1091              	.LBE172:
 1092              		.loc 3 186 29 discriminator 2 view .LVU371
 1093 02ca B0EE490A 		vmov.f32	s0, s18
 1094              	.LBB173:
 1095              	.LBB170:
 1096              		.loc 4 387 11 discriminator 2 view .LVU372
 1097 02ce E7EE267A 		vfma.f32	s15, s14, s13
 1098 02d2 C5ED147A 		vstr.32	s15, [r5, #80]
 1099              		.loc 4 388 7 is_stmt 1 discriminator 2 view .LVU373
 1100              	.LVL54:
 1101              		.loc 4 388 7 is_stmt 0 discriminator 2 view .LVU374
 1102              	.LBE170:
 1103              	.LBE173:
 1104              		.loc 3 186 9 is_stmt 1 discriminator 2 view .LVU375
 1105              		.loc 3 186 29 is_stmt 0 discriminator 2 view .LVU376
 1106 02d6 FFF7FEFF 		bl	_ZN11ResFilterFM7processEf
 1107              	.LVL55:
 1108              		.loc 3 186 51 discriminator 2 view .LVU377
 1109 02da 5846     		mov	r0, fp
 1110              		.loc 3 186 29 discriminator 2 view .LVU378
 1111 02dc F0EE408A 		vmov.f32	s17, s0
 1112              		.loc 3 186 51 discriminator 2 view .LVU379
 1113 02e0 B0EE490A 		vmov.f32	s0, s18
 1114 02e4 FFF7FEFF 		bl	_ZN11ResFilterFM7processEf
 1115              	.LVL56:
 1116              		.loc 3 186 73 discriminator 2 view .LVU380
 1117 02e8 2048     		ldr	r0, .L16+44
 1118              		.loc 3 186 33 discriminator 2 view .LVU381
 1119 02ea 78EE808A 		vadd.f32	s17, s17, s0
 1120              		.loc 3 186 73 discriminator 2 view .LVU382
 1121 02ee B0EE490A 		vmov.f32	s0, s18
 1122 02f2 FFF7FEFF 		bl	_ZN11ResFilterFM7processEf
 1123              	.LVL57:
 1124              		.loc 3 186 95 discriminator 2 view .LVU383
 1125 02f6 1E48     		ldr	r0, .L16+48
 1126              		.loc 3 186 55 discriminator 2 view .LVU384
 1127 02f8 78EE808A 		vadd.f32	s17, s17, s0
 1128              		.loc 3 186 95 discriminator 2 view .LVU385
 1129 02fc B0EE490A 		vmov.f32	s0, s18
 1130 0300 FFF7FEFF 		bl	_ZN11ResFilterFM7processEf
 1131              	.LVL58:
 1132              	.LBB174:
 1133              	.LBB175:
 1134              		.loc 4 385 13 discriminator 2 view .LVU386
 1135 0304 95ED167A 		vldr.32	s14, [r5, #88]
 1136 0308 D5ED1B7A 		vldr.32	s15, [r5, #108]
 1137              		.loc 4 387 11 discriminator 2 view .LVU387
 1138 030c D5ED176A 		vldr.32	s13, [r5, #92]
 1139              	.LBE175:
 1140              	.LBE174:
ARM GAS  /tmp/ccKCcunK.s 			page 21


 1141              		.loc 3 186 11 discriminator 2 view .LVU388
 1142 0310 38EE800A 		vadd.f32	s0, s17, s0
 1143              	.LVL59:
 1144              		.loc 3 187 9 is_stmt 1 discriminator 2 view .LVU389
 1145              	.LBB178:
 1146              	.LBI174:
 1147              		.loc 4 384 11 discriminator 2 view .LVU390
 1148              	.LBB176:
 1149              		.loc 4 385 7 discriminator 2 view .LVU391
 1150              		.loc 4 385 13 is_stmt 0 discriminator 2 view .LVU392
 1151 0314 E0EE077A 		vfma.f32	s15, s0, s14
 1152              	.LVL60:
 1153              		.loc 4 386 7 is_stmt 1 discriminator 2 view .LVU393
 1154              		.loc 4 387 7 discriminator 2 view .LVU394
 1155              		.loc 4 387 26 is_stmt 0 discriminator 2 view .LVU395
 1156 0318 95ED197A 		vldr.32	s14, [r5, #100]
 1157              		.loc 4 387 11 discriminator 2 view .LVU396
 1158 031c 27EE677A 		vnmul.f32	s14, s14, s15
 1159              	.LBE176:
 1160              	.LBE178:
 1161              		.loc 3 187 22 discriminator 2 view .LVU397
 1162 0320 FEEEE07A 		vcvt.s32.f32	s15, s15, #31
 1163              	.LVL61:
 1164              	.LBB179:
 1165              	.LBB177:
 1166              		.loc 4 387 11 discriminator 2 view .LVU398
 1167 0324 A0EE267A 		vfma.f32	s14, s0, s13
 1168 0328 85ED1B7A 		vstr.32	s14, [r5, #108]
 1169              		.loc 4 388 7 is_stmt 1 discriminator 2 view .LVU399
 1170              	.LVL62:
 1171              		.loc 4 388 7 is_stmt 0 discriminator 2 view .LVU400
 1172              	.LBE177:
 1173              	.LBE179:
 1174              		.loc 3 187 22 discriminator 2 view .LVU401
 1175 032c E6EC017A 		vstmia.32	r6!, {s15}	@ int
 1176              		.loc 3 161 5 is_stmt 1 discriminator 2 view .LVU402
 1177 0330 94E7     		b	.L13
 1178              	.LVL63:
 1179              	.L14:
 1180              		.loc 3 182 21 is_stmt 0 view .LVU403
 1181 0332 0023     		movs	r3, #0
 1182 0334 B7E7     		b	.L12
 1183              	.L7:
 1184              	.LBE239:
 1185              		.loc 3 191 1 view .LVU404
 1186 0336 BDEC088B 		vldm	sp!, {d8-d11}
 1187              		.cfi_restore 86
 1188              		.cfi_restore 87
 1189              		.cfi_restore 84
 1190              		.cfi_restore 85
 1191              		.cfi_restore 82
 1192              		.cfi_restore 83
 1193              		.cfi_restore 80
 1194              		.cfi_restore 81
 1195              		.cfi_def_cfa_offset 40
 1196 033a BDE8F88F 		pop	{r3, r4, r5, r6, r7, r8, r9, r10, fp, pc}
 1197              	.LVL64:
ARM GAS  /tmp/ccKCcunK.s 			page 22


 1198              	.L17:
 1199              		.loc 3 191 1 view .LVU405
 1200 033e 00BF     		.align	2
 1201              	.L16:
 1202 0340 00000000 		.word	.LANCHOR0
 1203 0344 00000000 		.word	.LANCHOR1
 1204 0348 54F82D40 		.word	1076754516
 1205 034c 00000000 		.word	midi_to_hz_lut_f
 1206 0350 00007A45 		.word	1165623296
 1207 0354 00000000 		.word	0
 1208 0358 00007A44 		.word	1148846080
 1209 035c 3EC3AE37 		.word	934200126
 1210 0360 DB0F4940 		.word	1078530011
 1211 0364 00000442 		.word	1107558400
 1212 0368 0000A642 		.word	1118175232
 1213 036c 84000000 		.word	.LANCHOR1+132
 1214 0370 C0000000 		.word	.LANCHOR1+192
 1215              		.cfi_endproc
 1216              	.LFE517:
 1217              		.size	_hook_cycle, .-_hook_cycle
 1218              		.align	1
 1219              		.global	_hook_on
 1220              		.syntax unified
 1221              		.thumb
 1222              		.thumb_func
 1223              		.fpu fpv4-sp-d16
 1224              		.type	_hook_on, %function
 1225              	_hook_on:
 1226              	.LVL65:
 1227              	.LFB518:
 1228              		.loc 3 194 1 is_stmt 1 view -0
 1229              		.cfi_startproc
 1230              		@ args = 0, pretend = 0, frame = 0
 1231              		@ frame_needed = 0, uses_anonymous_args = 0
 1232              		@ link register save eliminated.
 1233              		.loc 3 195 5 view .LVU407
 1234              		.loc 3 195 18 is_stmt 0 view .LVU408
 1235 0374 034B     		ldr	r3, .L19
 1236 0376 0022     		movs	r2, #0
 1237 0378 5A62     		str	r2, [r3, #36]
 1238              		.loc 3 196 5 is_stmt 1 view .LVU409
 1239              	.LBB240:
 1240              	.LBI240:
 1241              		.loc 5 11 8 view .LVU410
 1242              	.LVL66:
 1243              	.LBB241:
 1244              		.loc 5 13 5 view .LVU411
 1245              		.loc 5 13 21 is_stmt 0 view .LVU412
 1246 037a 034B     		ldr	r3, .L19+4
 1247 037c 0022     		movs	r2, #0
 1248 037e 5A60     		str	r2, [r3, #4]	@ float
 1249              	.LBE241:
 1250              	.LBE240:
 1251              		.loc 3 197 1 view .LVU413
 1252 0380 7047     		bx	lr
 1253              	.L20:
 1254 0382 00BF     		.align	2
ARM GAS  /tmp/ccKCcunK.s 			page 23


 1255              	.L19:
 1256 0384 00000000 		.word	.LANCHOR0
 1257 0388 00000000 		.word	.LANCHOR1
 1258              		.cfi_endproc
 1259              	.LFE518:
 1260              		.size	_hook_on, .-_hook_on
 1261              		.align	1
 1262              		.global	_hook_off
 1263              		.syntax unified
 1264              		.thumb
 1265              		.thumb_func
 1266              		.fpu fpv4-sp-d16
 1267              		.type	_hook_off, %function
 1268              	_hook_off:
 1269              	.LVL67:
 1270              	.LFB519:
 1271              		.loc 3 200 1 is_stmt 1 view -0
 1272              		.cfi_startproc
 1273              		@ args = 0, pretend = 0, frame = 0
 1274              		@ frame_needed = 0, uses_anonymous_args = 0
 1275              		@ link register save eliminated.
 1276              		.loc 3 201 3 view .LVU415
 1277              		.loc 3 202 1 is_stmt 0 view .LVU416
 1278 038c 7047     		bx	lr
 1279              		.cfi_endproc
 1280              	.LFE519:
 1281              		.size	_hook_off, .-_hook_off
 1282              		.align	1
 1283              		.global	_hook_param
 1284              		.syntax unified
 1285              		.thumb
 1286              		.thumb_func
 1287              		.fpu fpv4-sp-d16
 1288              		.type	_hook_param, %function
 1289              	_hook_param:
 1290              	.LVL68:
 1291              	.LFB520:
 1292              		.loc 3 205 1 is_stmt 1 view -0
 1293              		.cfi_startproc
 1294              		@ args = 0, pretend = 0, frame = 0
 1295              		@ frame_needed = 0, uses_anonymous_args = 0
 1296              		@ link register save eliminated.
 1297              		.loc 3 206 5 view .LVU418
 1298              		.loc 3 206 21 is_stmt 0 view .LVU419
 1299 038e 07EE901A 		vmov	s15, r1	@ int
 1300              		.loc 3 206 17 view .LVU420
 1301 0392 9FED097A 		vldr.32	s14, .L26
 1302              		.loc 3 206 21 view .LVU421
 1303 0396 F8EEE77A 		vcvt.f32.s32	s15, s15
 1304              		.loc 3 208 5 view .LVU422
 1305 039a 0628     		cmp	r0, #6
 1306              		.loc 3 206 17 view .LVU423
 1307 039c 67EE877A 		vmul.f32	s15, s15, s14
 1308              	.LVL69:
 1309              		.loc 3 208 5 is_stmt 1 view .LVU424
 1310 03a0 02D0     		beq	.L23
 1311 03a2 0728     		cmp	r0, #7
ARM GAS  /tmp/ccKCcunK.s 			page 24


 1312 03a4 04D0     		beq	.L24
 1313 03a6 7047     		bx	lr
 1314              	.L23:
 1315              		.loc 3 210 9 view .LVU425
 1316              		.loc 3 211 9 view .LVU426
 1317              		.loc 3 211 23 is_stmt 0 view .LVU427
 1318 03a8 044B     		ldr	r3, .L26+4
 1319 03aa C3ED0D7A 		vstr.32	s15, [r3, #52]
 1320              		.loc 3 212 13 is_stmt 1 view .LVU428
 1321 03ae 7047     		bx	lr
 1322              	.L24:
 1323              		.loc 3 214 9 view .LVU429
 1324              		.loc 3 215 9 view .LVU430
 1325              		.loc 3 215 22 is_stmt 0 view .LVU431
 1326 03b0 024B     		ldr	r3, .L26+4
 1327 03b2 C3ED087A 		vstr.32	s15, [r3, #32]
 1328              		.loc 3 216 13 is_stmt 1 view .LVU432
 1329              		.loc 3 221 1 is_stmt 0 view .LVU433
 1330 03b6 7047     		bx	lr
 1331              	.L27:
 1332              		.align	2
 1333              	.L26:
 1334 03b8 0820803A 		.word	981475336
 1335 03bc 00000000 		.word	.LANCHOR0
 1336              		.cfi_endproc
 1337              	.LFE520:
 1338              		.size	_hook_param, .-_hook_param
 1339              		.section	.text.startup,"ax",%progbits
 1340              		.align	1
 1341              		.syntax unified
 1342              		.thumb
 1343              		.thumb_func
 1344              		.fpu fpv4-sp-d16
 1345              		.type	_GLOBAL__sub_I_lowpass1, %function
 1346              	_GLOBAL__sub_I_lowpass1:
 1347              	.LFB522:
 1348              		.loc 3 221 1 is_stmt 1 view -0
 1349              		.cfi_startproc
 1350              		@ args = 0, pretend = 0, frame = 0
 1351              		@ frame_needed = 0, uses_anonymous_args = 0
 1352              		@ link register save eliminated.
 1353              	.LBB262:
 1354              	.LBI262:
 1355              		.loc 3 221 1 view .LVU435
 1356              	.LVL70:
 1357              	.LBB263:
 1358              	.LBB264:
 1359              	.LBI264:
 1360              		.loc 4 344 5 view .LVU436
 1361              	.LBB265:
 1362              	.LBB266:
 1363              	.LBB267:
 1364              	.LBI267:
 1365              		.loc 4 75 7 view .LVU437
 1366              	.LBB268:
 1367              	.LBB269:
 1368              		.loc 4 77 22 is_stmt 0 view .LVU438
ARM GAS  /tmp/ccKCcunK.s 			page 25


 1369 0000 0D4B     		ldr	r3, .L29
 1370 0002 0022     		movs	r2, #0
 1371 0004 DA63     		str	r2, [r3, #60]	@ float
 1372 0006 1A64     		str	r2, [r3, #64]	@ float
 1373 0008 5A64     		str	r2, [r3, #68]	@ float
 1374 000a 9A64     		str	r2, [r3, #72]	@ float
 1375 000c DA64     		str	r2, [r3, #76]	@ float
 1376              	.LVL71:
 1377              		.loc 4 77 22 view .LVU439
 1378              	.LBE269:
 1379              	.LBE268:
 1380              	.LBE267:
 1381              		.loc 4 344 33 view .LVU440
 1382 000e 1A65     		str	r2, [r3, #80]	@ float
 1383 0010 5A65     		str	r2, [r3, #84]	@ float
 1384              	.LVL72:
 1385              		.loc 4 344 33 view .LVU441
 1386              	.LBE266:
 1387              	.LBE265:
 1388              	.LBE264:
 1389              	.LBB270:
 1390              	.LBI270:
 1391              		.loc 4 344 5 is_stmt 1 view .LVU442
 1392              	.LBB271:
 1393              	.LBB272:
 1394              	.LBB273:
 1395              	.LBI273:
 1396              		.loc 4 75 7 view .LVU443
 1397              	.LBB274:
 1398              	.LBB275:
 1399              		.loc 4 77 22 is_stmt 0 view .LVU444
 1400 0012 5A67     		str	r2, [r3, #116]	@ float
 1401 0014 9A67     		str	r2, [r3, #120]	@ float
 1402 0016 DA67     		str	r2, [r3, #124]	@ float
 1403 0018 C3F88020 		str	r2, [r3, #128]	@ float
 1404 001c C3F88420 		str	r2, [r3, #132]	@ float
 1405              	.LVL73:
 1406              		.loc 4 77 22 view .LVU445
 1407              	.LBE275:
 1408              	.LBE274:
 1409              	.LBE273:
 1410              		.loc 4 344 33 view .LVU446
 1411 0020 C3F88820 		str	r2, [r3, #136]	@ float
 1412 0024 C3F88C20 		str	r2, [r3, #140]	@ float
 1413              	.LVL74:
 1414              		.loc 4 344 33 view .LVU447
 1415              	.LBE272:
 1416              	.LBE271:
 1417              	.LBE270:
 1418              	.LBB276:
 1419              	.LBI276:
 1420              		.loc 4 344 5 is_stmt 1 view .LVU448
 1421              	.LBB277:
 1422              	.LBB278:
 1423              	.LBB279:
 1424              	.LBI279:
 1425              		.loc 4 75 7 view .LVU449
ARM GAS  /tmp/ccKCcunK.s 			page 26


 1426              	.LBB280:
 1427              	.LBB281:
 1428              		.loc 4 77 22 is_stmt 0 view .LVU450
 1429 0028 9A65     		str	r2, [r3, #88]	@ float
 1430 002a DA65     		str	r2, [r3, #92]	@ float
 1431 002c 1A66     		str	r2, [r3, #96]	@ float
 1432 002e 5A66     		str	r2, [r3, #100]	@ float
 1433 0030 9A66     		str	r2, [r3, #104]	@ float
 1434              	.LVL75:
 1435              		.loc 4 77 22 view .LVU451
 1436              	.LBE281:
 1437              	.LBE280:
 1438              	.LBE279:
 1439              		.loc 4 344 33 view .LVU452
 1440 0032 DA66     		str	r2, [r3, #108]	@ float
 1441 0034 1A67     		str	r2, [r3, #112]	@ float
 1442              	.LVL76:
 1443              		.loc 4 344 33 view .LVU453
 1444              	.LBE278:
 1445              	.LBE277:
 1446              	.LBE276:
 1447              	.LBE263:
 1448              	.LBE262:
 1449              		.loc 3 221 1 view .LVU454
 1450 0036 7047     		bx	lr
 1451              	.L30:
 1452              		.align	2
 1453              	.L29:
 1454 0038 00000000 		.word	.LANCHOR0
 1455              		.cfi_endproc
 1456              	.LFE522:
 1457              		.size	_GLOBAL__sub_I_lowpass1, .-_GLOBAL__sub_I_lowpass1
 1458              		.section	.init_array,"aw",%init_array
 1459              		.align	2
 1460 0000 00000000 		.word	_GLOBAL__sub_I_lowpass1(target1)
 1461              		.global	highpass
 1462              		.global	lowpass2
 1463              		.global	lowpass1
 1464              		.data
 1465              		.align	2
 1466              		.set	.LANCHOR1,. + 0
 1467              		.type	_ZL5metro, %object
 1468              		.size	_ZL5metro, 12
 1469              	_ZL5metro:
 1470 0000 00004842 		.word	1112014848
 1471 0004 00000000 		.word	0
 1472 0008 00803B47 		.word	1195081728
 1473              		.type	_ZL8resFilt1, %object
 1474              		.size	_ZL8resFilt1, 60
 1475              	_ZL8resFilt1:
 1476 000c 00007A44 		.word	1148846080
 1477 0010 0000003F 		.word	1056964608
 1478 0014 00803B47 		.word	1195081728
 1479 0018 00000000 		.word	0
 1480 001c 00000000 		.word	0
 1481 0020 00000000 		.word	0
 1482 0024 00000000 		.word	0
ARM GAS  /tmp/ccKCcunK.s 			page 27


 1483 0028 00000000 		.word	0
 1484 002c 00000000 		.word	0
 1485 0030 00000000 		.word	0
 1486 0034 00000000 		.word	0
 1487 0038 00000000 		.word	0
 1488 003c 00000000 		.word	0
 1489 0040 00000000 		.word	0
 1490 0044 00000000 		.word	0
 1491              		.type	_ZL8resFilt2, %object
 1492              		.size	_ZL8resFilt2, 60
 1493              	_ZL8resFilt2:
 1494 0048 00007A44 		.word	1148846080
 1495 004c 0000003F 		.word	1056964608
 1496 0050 00803B47 		.word	1195081728
 1497 0054 00000000 		.word	0
 1498 0058 00000000 		.word	0
 1499 005c 00000000 		.word	0
 1500 0060 00000000 		.word	0
 1501 0064 00000000 		.word	0
 1502 0068 00000000 		.word	0
 1503 006c 00000000 		.word	0
 1504 0070 00000000 		.word	0
 1505 0074 00000000 		.word	0
 1506 0078 00000000 		.word	0
 1507 007c 00000000 		.word	0
 1508 0080 00000000 		.word	0
 1509              		.type	_ZL8resFilt3, %object
 1510              		.size	_ZL8resFilt3, 60
 1511              	_ZL8resFilt3:
 1512 0084 00007A44 		.word	1148846080
 1513 0088 0000003F 		.word	1056964608
 1514 008c 00803B47 		.word	1195081728
 1515 0090 00000000 		.word	0
 1516 0094 00000000 		.word	0
 1517 0098 00000000 		.word	0
 1518 009c 00000000 		.word	0
 1519 00a0 00000000 		.word	0
 1520 00a4 00000000 		.word	0
 1521 00a8 00000000 		.word	0
 1522 00ac 00000000 		.word	0
 1523 00b0 00000000 		.word	0
 1524 00b4 00000000 		.word	0
 1525 00b8 00000000 		.word	0
 1526 00bc 00000000 		.word	0
 1527              		.type	_ZL8resFilt4, %object
 1528              		.size	_ZL8resFilt4, 60
 1529              	_ZL8resFilt4:
 1530 00c0 00007A44 		.word	1148846080
 1531 00c4 0000003F 		.word	1056964608
 1532 00c8 00803B47 		.word	1195081728
 1533 00cc 00000000 		.word	0
 1534 00d0 00000000 		.word	0
 1535 00d4 00000000 		.word	0
 1536 00d8 00000000 		.word	0
 1537 00dc 00000000 		.word	0
 1538 00e0 00000000 		.word	0
 1539 00e4 00000000 		.word	0
ARM GAS  /tmp/ccKCcunK.s 			page 28


 1540 00e8 00000000 		.word	0
 1541 00ec 00000000 		.word	0
 1542 00f0 00000000 		.word	0
 1543 00f4 00000000 		.word	0
 1544 00f8 00000000 		.word	0
 1545              		.bss
 1546              		.align	2
 1547              		.set	.LANCHOR0,. + 0
 1548              		.type	_ZL7s_state, %object
 1549              		.size	_ZL7s_state, 60
 1550              	_ZL7s_state:
 1551 0000 00000000 		.space	60
 1551      00000000 
 1551      00000000 
 1551      00000000 
 1551      00000000 
 1552              		.type	lowpass1, %object
 1553              		.size	lowpass1, 28
 1554              	lowpass1:
 1555 003c 00000000 		.space	28
 1555      00000000 
 1555      00000000 
 1555      00000000 
 1555      00000000 
 1556              		.type	highpass, %object
 1557              		.size	highpass, 28
 1558              	highpass:
 1559 0058 00000000 		.space	28
 1559      00000000 
 1559      00000000 
 1559      00000000 
 1559      00000000 
 1560              		.type	lowpass2, %object
 1561              		.size	lowpass2, 28
 1562              	lowpass2:
 1563 0074 00000000 		.space	28
 1563      00000000 
 1563      00000000 
 1563      00000000 
 1563      00000000 
 1564              		.text
 1565              	.Letext0:
 1566              		.file 8 "/usr/lib/gcc/arm-none-eabi/9.2.1/include/stdint.h"
 1567              		.file 9 "/usr/include/newlib/c++/9.2.1/bits/cpp_type_traits.h"
 1568              		.file 10 "/usr/include/newlib/c++/9.2.1/cmath"
 1569              		.file 11 "/usr/include/newlib/c++/9.2.1/bits/std_abs.h"
 1570              		.file 12 "/usr/include/newlib/c++/9.2.1/arm-none-eabi/thumb/v7e-m+fp/hard/bits/c++config.h"
 1571              		.file 13 "/usr/lib/gcc/arm-none-eabi/9.2.1/include/stddef.h"
 1572              		.file 14 "/usr/include/newlib/sys/_types.h"
 1573              		.file 15 "/usr/include/newlib/sys/reent.h"
 1574              		.file 16 "/usr/include/newlib/sys/lock.h"
 1575              		.file 17 "/usr/include/newlib/math.h"
 1576              		.file 18 "/usr/include/newlib/c++/9.2.1/math.h"
 1577              		.file 19 "/usr/include/newlib/stdlib.h"
 1578              		.file 20 "/workspace/ext/CMSIS/CMSIS/Include/arm_math.h"
 1579              		.file 21 "/workspace/minilogue-xd/inc/userosc.h"
 1580              		.file 22 "<built-in>"
ARM GAS  /tmp/ccKCcunK.s 			page 29

