ARM GAS  /tmp/ccYNvm30.s 			page 1


   1              		.cpu cortex-m4
   2              		.eabi_attribute 27, 1
   3              		.eabi_attribute 28, 1
   4              		.eabi_attribute 20, 1
   5              		.eabi_attribute 21, 1
   6              		.eabi_attribute 23, 3
   7              		.eabi_attribute 24, 1
   8              		.eabi_attribute 25, 1
   9              		.eabi_attribute 26, 1
  10              		.eabi_attribute 30, 4
  11              		.eabi_attribute 34, 1
  12              		.eabi_attribute 18, 4
  13              		.file	"_unit.c"
  14              		.text
  15              	.Ltext0:
  16              		.cfi_sections	.debug_frame
  17              		.align	1
  18              		.weak	_hook_cycle
  19              		.arch armv7e-m
  20              		.syntax unified
  21              		.thumb
  22              		.thumb_func
  23              		.fpu fpv4-sp-d16
  24              		.type	_hook_cycle, %function
  25              	_hook_cycle:
  26              	.LVL0:
  27              	.LFB241:
  28              		.file 1 "/workspace/nutekt-digital/Crickets/tpl/_unit.c"
  29              		.loc 1 130 1 view -0
  30              		.cfi_startproc
  31              		@ args = 0, pretend = 0, frame = 0
  32              		@ frame_needed = 0, uses_anonymous_args = 0
  33              		@ link register save eliminated.
  34              		.loc 1 131 3 view .LVU1
  35              		.loc 1 132 3 view .LVU2
  36              		.loc 1 133 3 view .LVU3
  37              		.loc 1 134 1 is_stmt 0 view .LVU4
  38 0000 7047     		bx	lr
  39              		.cfi_endproc
  40              	.LFE241:
  41              		.size	_hook_cycle, .-_hook_cycle
  42              		.align	1
  43              		.weak	_hook_on
  44              		.syntax unified
  45              		.thumb
  46              		.thumb_func
  47              		.fpu fpv4-sp-d16
  48              		.type	_hook_on, %function
  49              	_hook_on:
  50              	.LVL1:
  51              	.LFB242:
  52              		.loc 1 138 1 is_stmt 1 view -0
  53              		.cfi_startproc
  54              		@ args = 0, pretend = 0, frame = 0
  55              		@ frame_needed = 0, uses_anonymous_args = 0
  56              		@ link register save eliminated.
  57              		.loc 1 139 3 view .LVU6
ARM GAS  /tmp/ccYNvm30.s 			page 2


  58              		.loc 1 140 1 is_stmt 0 view .LVU7
  59 0002 7047     		bx	lr
  60              		.cfi_endproc
  61              	.LFE242:
  62              		.size	_hook_on, .-_hook_on
  63              		.align	1
  64              		.weak	_hook_value
  65              		.syntax unified
  66              		.thumb
  67              		.thumb_func
  68              		.fpu fpv4-sp-d16
  69              		.type	_hook_value, %function
  70              	_hook_value:
  71              	.LVL2:
  72              	.LFB245:
  73              		.loc 1 156 1 is_stmt 1 view -0
  74              		.cfi_startproc
  75              		@ args = 0, pretend = 0, frame = 0
  76              		@ frame_needed = 0, uses_anonymous_args = 0
  77              		@ link register save eliminated.
  78              		.loc 1 157 3 view .LVU9
  79              		.loc 1 158 1 is_stmt 0 view .LVU10
  80 0004 7047     		bx	lr
  81              		.cfi_endproc
  82              	.LFE245:
  83              		.size	_hook_value, .-_hook_value
  84              		.align	1
  85              		.weak	_hook_param
  86              		.syntax unified
  87              		.thumb
  88              		.thumb_func
  89              		.fpu fpv4-sp-d16
  90              		.type	_hook_param, %function
  91              	_hook_param:
  92              	.LVL3:
  93              	.LFB246:
  94              		.loc 1 162 1 is_stmt 1 view -0
  95              		.cfi_startproc
  96              		@ args = 0, pretend = 0, frame = 0
  97              		@ frame_needed = 0, uses_anonymous_args = 0
  98              		@ link register save eliminated.
  99              		.loc 1 163 3 view .LVU12
 100              		.loc 1 164 3 view .LVU13
 101              		.loc 1 165 1 is_stmt 0 view .LVU14
 102 0006 7047     		bx	lr
 103              		.cfi_endproc
 104              	.LFE246:
 105              		.size	_hook_param, .-_hook_param
 106              		.align	1
 107              		.weak	_hook_mute
 108              		.syntax unified
 109              		.thumb
 110              		.thumb_func
 111              		.fpu fpv4-sp-d16
 112              		.type	_hook_mute, %function
 113              	_hook_mute:
 114              	.LFB250:
ARM GAS  /tmp/ccYNvm30.s 			page 3


 115              		.cfi_startproc
 116              		@ args = 0, pretend = 0, frame = 0
 117              		@ frame_needed = 0, uses_anonymous_args = 0
 118              		@ link register save eliminated.
 119 0008 7047     		bx	lr
 120              		.cfi_endproc
 121              	.LFE250:
 122              		.size	_hook_mute, .-_hook_mute
 123              		.align	1
 124              		.weak	_hook_off
 125              		.syntax unified
 126              		.thumb
 127              		.thumb_func
 128              		.fpu fpv4-sp-d16
 129              		.type	_hook_off, %function
 130              	_hook_off:
 131              	.LFB248:
 132              		.cfi_startproc
 133              		@ args = 0, pretend = 0, frame = 0
 134              		@ frame_needed = 0, uses_anonymous_args = 0
 135              		@ link register save eliminated.
 136 000a 7047     		bx	lr
 137              		.cfi_endproc
 138              	.LFE248:
 139              		.size	_hook_off, .-_hook_off
 140              		.align	1
 141              		.weak	_hook_init
 142              		.syntax unified
 143              		.thumb
 144              		.thumb_func
 145              		.fpu fpv4-sp-d16
 146              		.type	_hook_init, %function
 147              	_hook_init:
 148              	.LVL4:
 149              	.LFB240:
 150              		.loc 1 123 1 is_stmt 1 view -0
 151              		.cfi_startproc
 152              		@ args = 0, pretend = 0, frame = 0
 153              		@ frame_needed = 0, uses_anonymous_args = 0
 154              		@ link register save eliminated.
 155              		.loc 1 124 3 view .LVU16
 156              		.loc 1 125 3 view .LVU17
 157              		.loc 1 126 1 is_stmt 0 view .LVU18
 158 000c 7047     		bx	lr
 159              		.cfi_endproc
 160              	.LFE240:
 161              		.size	_hook_init, .-_hook_init
 162              		.align	1
 163              		.global	_entry
 164              		.syntax unified
 165              		.thumb
 166              		.thumb_func
 167              		.fpu fpv4-sp-d16
 168              		.type	_entry, %function
 169              	_entry:
 170              	.LVL5:
 171              	.LFB239:
ARM GAS  /tmp/ccYNvm30.s 			page 4


 172              		.loc 1 101 1 is_stmt 1 view -0
 173              		.cfi_startproc
 174              		@ args = 0, pretend = 0, frame = 8
 175              		@ frame_needed = 0, uses_anonymous_args = 0
 176              		.loc 1 103 3 view .LVU20
 177              		.loc 1 104 3 view .LVU21
 178              		.loc 1 106 3 view .LVU22
 179              		.loc 1 103 24 is_stmt 0 view .LVU23
 180 000e 0F4B     		ldr	r3, .L17
 181              		.loc 1 106 3 view .LVU24
 182 0010 0F4A     		ldr	r2, .L17+4
 183              		.loc 1 101 1 view .LVU25
 184 0012 73B5     		push	{r0, r1, r4, r5, r6, lr}
 185              		.cfi_def_cfa_offset 24
 186              		.cfi_offset 4, -16
 187              		.cfi_offset 5, -12
 188              		.cfi_offset 6, -8
 189              		.cfi_offset 14, -4
 190              		.loc 1 107 16 view .LVU26
 191 0014 0024     		movs	r4, #0
 192              	.LVL6:
 193              	.L9:
 194              		.loc 1 106 10 is_stmt 1 view .LVU27
 195              		.loc 1 106 3 is_stmt 0 view .LVU28
 196 0016 9342     		cmp	r3, r2
 197 0018 0AD1     		bne	.L10
 198              		.loc 1 110 3 is_stmt 1 view .LVU29
 199              		.loc 1 110 41 is_stmt 0 view .LVU30
 200 001a 0E4D     		ldr	r5, .L17+8
 201 001c 0E4C     		ldr	r4, .L17+12
 202 001e 641B     		subs	r4, r4, r5
 203 0020 A410     		asrs	r4, r4, #2
 204              	.LVL7:
 205              		.loc 1 111 3 is_stmt 1 view .LVU31
 206              	.LBB2:
 207              		.loc 1 111 8 view .LVU32
 208              		.loc 1 111 15 is_stmt 0 view .LVU33
 209 0022 0026     		movs	r6, #0
 210              	.LVL8:
 211              	.L11:
 212              		.loc 1 111 22 is_stmt 1 discriminator 1 view .LVU34
 213              		.loc 1 111 3 is_stmt 0 discriminator 1 view .LVU35
 214 0024 A642     		cmp	r6, r4
 215 0026 06D1     		bne	.L13
 216              	.LBE2:
 217              		.loc 1 118 3 is_stmt 1 view .LVU36
 218 0028 FFF7FEFF 		bl	_hook_init
 219              	.LVL9:
 220              		.loc 1 119 1 is_stmt 0 view .LVU37
 221 002c 02B0     		add	sp, sp, #8
 222              		.cfi_remember_state
 223              		.cfi_def_cfa_offset 16
 224              		@ sp needed
 225 002e 70BD     		pop	{r4, r5, r6, pc}
 226              	.LVL10:
 227              	.L10:
 228              		.cfi_restore_state
ARM GAS  /tmp/ccYNvm30.s 			page 5


 229              		.loc 1 107 5 is_stmt 1 view .LVU38
 230              		.loc 1 107 16 is_stmt 0 view .LVU39
 231 0030 03F8014B 		strb	r4, [r3], #1
 232              	.LVL11:
 233              		.loc 1 107 16 view .LVU40
 234 0034 EFE7     		b	.L9
 235              	.LVL12:
 236              	.L13:
 237              	.LBB4:
 238              	.LBB3:
 239              		.loc 1 112 5 is_stmt 1 view .LVU41
 240              		.loc 1 112 17 is_stmt 0 view .LVU42
 241 0036 55F8043B 		ldr	r3, [r5], #4
 242              	.LVL13:
 243              		.loc 1 113 5 is_stmt 1 view .LVU43
 244              		.loc 1 113 8 is_stmt 0 view .LVU44
 245 003a 23B1     		cbz	r3, .L12
 246 003c CDE90001 		strd	r0, r1, [sp]
 247              		.loc 1 114 7 is_stmt 1 view .LVU45
 248 0040 9847     		blx	r3
 249              	.LVL14:
 250              		.loc 1 114 7 is_stmt 0 view .LVU46
 251 0042 DDE90001 		ldrd	r0, r1, [sp]
 252              	.L12:
 253              	.LBE3:
 254              		.loc 1 111 31 is_stmt 1 discriminator 2 view .LVU47
 255 0046 0136     		adds	r6, r6, #1
 256              	.LVL15:
 257              		.loc 1 111 31 is_stmt 0 discriminator 2 view .LVU48
 258 0048 ECE7     		b	.L11
 259              	.L18:
 260 004a 00BF     		.align	2
 261              	.L17:
 262 004c 00000000 		.word	_bss_start
 263 0050 00000000 		.word	_bss_end
 264 0054 00000000 		.word	__init_array_start
 265 0058 00000000 		.word	__init_array_end
 266              	.LBE4:
 267              		.cfi_endproc
 268              	.LFE239:
 269              		.size	_entry, .-_entry
 270              		.section	.hooks,"a"
 271              		.type	s_hook_table, %object
 272              		.size	s_hook_table, 64
 273              	s_hook_table:
 274 0000 554F5343 		.ascii	"UOSC"
 275 0004 00010100 		.4byte	65792
 276 0008 03       		.byte	3
 277 0009 0000     		.ascii	"\000\000"
 278 000b 00000000 		.space	5
 278      00
 279 0010 00000000 		.4byte	_entry
 280 0014 00000000 		.4byte	_hook_cycle
 281 0018 00000000 		.4byte	_hook_on
 282 001c 00000000 		.4byte	_hook_off
 283 0020 00000000 		.4byte	_hook_mute
 284 0024 00000000 		.4byte	_hook_value
ARM GAS  /tmp/ccYNvm30.s 			page 6


 285 0028 00000000 		.4byte	_hook_param
 286 002c 00000000 		.4byte	0
 287 0030 00000000 		.space	16
 287      00000000 
 287      00000000 
 287      00000000 
 288              		.text
 289              	.Letext0:
 290              		.file 2 "/usr/lib/gcc/arm-none-eabi/9.2.1/include/stdint.h"
 291              		.file 3 "/usr/lib/gcc/arm-none-eabi/9.2.1/include/stddef.h"
 292              		.file 4 "/usr/include/newlib/sys/_types.h"
 293              		.file 5 "/usr/include/newlib/sys/reent.h"
 294              		.file 6 "/usr/include/newlib/sys/lock.h"
 295              		.file 7 "/workspace/nutekt-digital/inc/osc_api.h"
 296              		.file 8 "/workspace/nutekt-digital/inc/userosc.h"