ARM GAS  /tmp/cctzcNd8.s 			page 1


   1              		.cpu cortex-m4
   2              		.eabi_attribute 27, 1
   3              		.eabi_attribute 28, 1
   4              		.eabi_attribute 20, 1
   5              		.eabi_attribute 21, 1
   6              		.eabi_attribute 23, 3
   7              		.eabi_attribute 24, 1
   8              		.eabi_attribute 25, 1
   9              		.eabi_attribute 26, 1
  10              		.eabi_attribute 30, 4
  11              		.eabi_attribute 34, 1
  12              		.eabi_attribute 18, 4
  13              		.file	"Wind.cpp"
  14              		.text
  15              	.Ltext0:
  16              		.cfi_sections	.debug_frame
  17              		.section	.text._ZN3dsp6BiQuadC2Ev,"axG",%progbits,_ZN3dsp6BiQuadC5Ev,comdat
  18              		.align	1
  19              		.weak	_ZN3dsp6BiQuadC2Ev
  20              		.arch armv7e-m
  21              		.syntax unified
  22              		.thumb
  23              		.thumb_func
  24              		.fpu fpv4-sp-d16
  25              		.type	_ZN3dsp6BiQuadC2Ev, %function
  26              	_ZN3dsp6BiQuadC2Ev:
  27              	.LVL0:
  28              	.LFB483:
  29              		.file 1 "/workspace/nutekt-digital/inc/dsp/biquad.hpp"
  30              		.loc 1 344 5 view -0
  31              		.cfi_startproc
  32              		@ args = 0, pretend = 0, frame = 0
  33              		@ frame_needed = 0, uses_anonymous_args = 0
  34              		@ link register save eliminated.
  35              	.LBB114:
  36              	.LBB115:
  37              	.LBI115:
  38              		.loc 1 75 7 view .LVU1
  39              	.LBB116:
  40              		.loc 1 77 22 is_stmt 0 view .LVU2
  41 0000 0022     		movs	r2, #0
  42 0002 0260     		str	r2, [r0]	@ float
  43 0004 4260     		str	r2, [r0, #4]	@ float
  44 0006 8260     		str	r2, [r0, #8]	@ float
  45 0008 C260     		str	r2, [r0, #12]	@ float
  46 000a 0261     		str	r2, [r0, #16]	@ float
  47              	.LVL1:
  48              		.loc 1 77 22 view .LVU3
  49              	.LBE116:
  50              	.LBE115:
  51              		.loc 1 344 33 view .LVU4
  52 000c 4261     		str	r2, [r0, #20]	@ float
  53 000e 8261     		str	r2, [r0, #24]	@ float
  54              	.LBE114:
  55              		.loc 1 345 7 view .LVU5
  56 0010 7047     		bx	lr
  57              		.cfi_endproc
ARM GAS  /tmp/cctzcNd8.s 			page 2


  58              	.LFE483:
  59              		.size	_ZN3dsp6BiQuadC2Ev, .-_ZN3dsp6BiQuadC2Ev
  60              		.weak	_ZN3dsp6BiQuadC1Ev
  61              		.thumb_set _ZN3dsp6BiQuadC1Ev,_ZN3dsp6BiQuadC2Ev
  62              		.section	.text._ZN7genAlea10resetValueEv,"axG",%progbits,_ZN7genAlea10resetValueEv,comdat
  63              		.align	1
  64              		.weak	_ZN7genAlea10resetValueEv
  65              		.syntax unified
  66              		.thumb
  67              		.thumb_func
  68              		.fpu fpv4-sp-d16
  69              		.type	_ZN7genAlea10resetValueEv, %function
  70              	_ZN7genAlea10resetValueEv:
  71              	.LVL2:
  72              	.LFB514:
  73              		.file 2 "GenAlea.hpp"
  74              		.loc 2 37 10 is_stmt 1 view -0
  75              		.cfi_startproc
  76              		@ args = 0, pretend = 0, frame = 0
  77              		@ frame_needed = 0, uses_anonymous_args = 0
  78              		.loc 2 39 9 view .LVU7
  79              		.loc 2 37 10 is_stmt 0 view .LVU8
  80 0000 10B5     		push	{r4, lr}
  81              		.cfi_def_cfa_offset 8
  82              		.cfi_offset 4, -8
  83              		.cfi_offset 14, -4
  84              		.loc 2 39 25 view .LVU9
  85 0002 D0ED017A 		vldr.32	s15, [r0, #4]
  86              		.loc 2 39 38 view .LVU10
  87 0006 D0ED006A 		vldr.32	s13, [r0]
  88              		.loc 2 40 51 view .LVU11
  89 000a 90ED0D6A 		vldr.32	s12, [r0, #52]
  90              		.loc 2 39 36 view .LVU12
  91 000e 37EEE67A 		vsub.f32	s14, s15, s13
  92              		.loc 2 37 10 view .LVU13
  93 0012 2DED048B 		vpush.64	{d8, d9}
  94              		.cfi_def_cfa_offset 24
  95              		.cfi_offset 80, -24
  96              		.cfi_offset 81, -20
  97              		.cfi_offset 82, -16
  98              		.cfi_offset 83, -12
  99              		.loc 2 39 15 view .LVU14
 100 0016 B6EE009A 		vmov.f32	s18, #5.0e-1
 101 001a 27EE097A 		vmul.f32	s14, s14, s18
 102              	.LVL3:
 103              		.loc 2 40 9 is_stmt 1 view .LVU15
 104              		.loc 2 37 10 is_stmt 0 view .LVU16
 105 001e 0446     		mov	r4, r0
 106              		.loc 2 41 40 view .LVU17
 107 0020 E6EE477A 		vfms.f32	s15, s12, s14
 108              		.loc 2 40 40 view .LVU18
 109 0024 E6EE076A 		vfma.f32	s13, s12, s14
 110              		.loc 2 41 27 view .LVU19
 111 0028 C0ED027A 		vstr.32	s15, [r0, #8]
 112              		.loc 2 40 27 view .LVU20
 113 002c C0ED036A 		vstr.32	s13, [r0, #12]
 114              		.loc 2 41 9 is_stmt 1 view .LVU21
ARM GAS  /tmp/cctzcNd8.s 			page 3


 115              		.loc 2 43 9 view .LVU22
 116              		.loc 2 43 26 is_stmt 0 view .LVU23
 117 0030 D0ED048A 		vldr.32	s17, [r0, #16]
 118              	.LBB117:
 119              	.LBI117:
 120              		.file 3 "/workspace/nutekt-digital/inc/osc_api.h"
 121              		.loc 3 779 23 is_stmt 1 view .LVU24
 122              	.LBB118:
 123              		.loc 3 780 5 view .LVU25
 124              		.loc 3 780 22 is_stmt 0 view .LVU26
 125 0034 FFF7FEFF 		bl	_osc_white
 126              	.LVL4:
 127              		.loc 3 780 22 view .LVU27
 128              	.LBE118:
 129              	.LBE117:
 130              		.loc 2 43 54 view .LVU28
 131 0038 F7EE009A 		vmov.f32	s19, #1.0e+0
 132              		.loc 2 43 80 view .LVU29
 133 003c 94ED047A 		vldr.32	s14, [r4, #16]
 134 0040 D4ED057A 		vldr.32	s15, [r4, #20]
 135              		.loc 2 44 23 view .LVU30
 136 0044 94ED038A 		vldr.32	s16, [r4, #12]
 137              		.loc 2 43 54 view .LVU31
 138 0048 30EE290A 		vadd.f32	s0, s0, s19
 139              		.loc 2 43 80 view .LVU32
 140 004c 77EEC77A 		vsub.f32	s15, s15, s14
 141              		.loc 2 43 59 view .LVU33
 142 0050 20EE090A 		vmul.f32	s0, s0, s18
 143              		.loc 2 43 94 view .LVU34
 144 0054 E0EE278A 		vfma.f32	s17, s0, s15
 145              	.LVL5:
 146              		.loc 2 44 9 is_stmt 1 view .LVU35
 147              	.LBB119:
 148              	.LBI119:
 149              		.loc 3 779 23 view .LVU36
 150              	.LBB120:
 151              		.loc 3 780 5 view .LVU37
 152              		.loc 3 780 22 is_stmt 0 view .LVU38
 153 0058 FFF7FEFF 		bl	_osc_white
 154              	.LVL6:
 155              	.LBE120:
 156              	.LBE119:
 157              		.loc 2 44 85 view .LVU39
 158 005c D4ED027A 		vldr.32	s15, [r4, #8]
 159 0060 94ED037A 		vldr.32	s14, [r4, #12]
 160              	.LBB121:
 161              	.LBB122:
 162              		.file 4 "LineNew.hpp"
 163              		.loc 4 41 16 view .LVU40
 164 0064 A369     		ldr	r3, [r4, #24]	@ float
 165              		.loc 4 43 16 view .LVU41
 166 0066 C4ED0A8A 		vstr.32	s17, [r4, #40]
 167              	.LBE122:
 168              	.LBE121:
 169              		.loc 2 44 55 view .LVU42
 170 006a 30EE290A 		vadd.f32	s0, s0, s19
 171              		.loc 2 44 85 view .LVU43
ARM GAS  /tmp/cctzcNd8.s 			page 4


 172 006e 77EEC77A 		vsub.f32	s15, s15, s14
 173              		.loc 2 44 60 view .LVU44
 174 0072 20EE090A 		vmul.f32	s0, s0, s18
 175              	.LBB126:
 176              	.LBB123:
 177              		.loc 4 41 16 view .LVU45
 178 0076 2362     		str	r3, [r4, #32]	@ float
 179              	.LBE123:
 180              	.LBE126:
 181              		.loc 2 44 103 view .LVU46
 182 0078 A0EE278A 		vfma.f32	s16, s0, s15
 183              	.LVL7:
 184              		.loc 2 45 9 is_stmt 1 view .LVU47
 185              	.LBB127:
 186              	.LBI121:
 187              		.loc 4 39 7 view .LVU48
 188              	.LBB124:
 189              		.loc 4 41 3 view .LVU49
 190              		.loc 4 42 3 view .LVU50
 191              		.loc 4 44 19 is_stmt 0 view .LVU51
 192 007c 0023     		movs	r3, #0
 193              	.LVL8:
 194              		.loc 4 44 19 view .LVU52
 195 007e E362     		str	r3, [r4, #44]	@ float
 196              		.loc 4 45 11 view .LVU53
 197 0080 0023     		movs	r3, #0
 198              		.loc 4 42 14 view .LVU54
 199 0082 84ED098A 		vstr.32	s16, [r4, #36]
 200              		.loc 4 43 3 is_stmt 1 view .LVU55
 201              		.loc 4 44 3 view .LVU56
 202              		.loc 4 45 3 view .LVU57
 203              	.LBE124:
 204              	.LBE127:
 205              		.loc 2 46 21 is_stmt 0 view .LVU58
 206 0086 84ED068A 		vstr.32	s16, [r4, #24]
 207              	.LVL9:
 208              		.loc 2 47 5 view .LVU59
 209 008a BDEC048B 		vldm	sp!, {d8-d9}
 210              		.cfi_restore 82
 211              		.cfi_restore 83
 212              		.cfi_restore 80
 213              		.cfi_restore 81
 214              		.cfi_def_cfa_offset 8
 215              	.LVL10:
 216              	.LBB128:
 217              	.LBB125:
 218              		.loc 4 45 11 view .LVU60
 219 008e 84F83030 		strb	r3, [r4, #48]
 220              	.LVL11:
 221              		.loc 4 45 11 view .LVU61
 222              	.LBE125:
 223              	.LBE128:
 224              		.loc 2 46 9 is_stmt 1 view .LVU62
 225              		.loc 2 47 5 is_stmt 0 view .LVU63
 226 0092 10BD     		pop	{r4, pc}
 227              		.loc 2 47 5 view .LVU64
 228              		.cfi_endproc
ARM GAS  /tmp/cctzcNd8.s 			page 5


 229              	.LFE514:
 230              		.size	_ZN7genAlea10resetValueEv, .-_ZN7genAlea10resetValueEv
 231              		.section	.text._ZN7genAlea8getValueEf,"axG",%progbits,_ZN7genAlea8getValueEf,comdat
 232              		.align	1
 233              		.weak	_ZN7genAlea8getValueEf
 234              		.syntax unified
 235              		.thumb
 236              		.thumb_func
 237              		.fpu fpv4-sp-d16
 238              		.type	_ZN7genAlea8getValueEf, %function
 239              	_ZN7genAlea8getValueEf:
 240              	.LVL12:
 241              	.LFB515:
 242              		.loc 2 51 11 is_stmt 1 view -0
 243              		.cfi_startproc
 244              		@ args = 0, pretend = 0, frame = 0
 245              		@ frame_needed = 0, uses_anonymous_args = 0
 246              		.loc 2 54 9 view .LVU66
 247              		.loc 2 55 9 is_stmt 0 view .LVU67
 248 0000 90F83030 		ldrb	r3, [r0, #48]	@ zero_extendqisi2
 249              		.loc 2 54 23 view .LVU68
 250 0004 80ED0D0A 		vstr.32	s0, [r0, #52]
 251              		.loc 2 55 9 is_stmt 1 view .LVU69
 252              		.loc 2 51 11 is_stmt 0 view .LVU70
 253 0008 10B5     		push	{r4, lr}
 254              		.cfi_def_cfa_offset 8
 255              		.cfi_offset 4, -8
 256              		.cfi_offset 14, -4
 257              		.loc 2 51 11 view .LVU71
 258 000a 0446     		mov	r4, r0
 259              		.loc 2 55 9 view .LVU72
 260 000c 0BB1     		cbz	r3, .L4
 261              		.loc 2 56 13 is_stmt 1 view .LVU73
 262              		.loc 2 56 23 is_stmt 0 view .LVU74
 263 000e FFF7FEFF 		bl	_ZN7genAlea10resetValueEv
 264              	.LVL13:
 265              	.L4:
 266              		.loc 2 57 9 is_stmt 1 view .LVU75
 267              	.LBB131:
 268              	.LBI131:
 269              		.loc 4 16 8 view .LVU76
 270              	.LBB132:
 271              		.loc 4 18 3 view .LVU77
 272              		.loc 4 20 3 view .LVU78
 273              		.loc 4 20 7 is_stmt 0 view .LVU79
 274 0012 94ED0B7A 		vldr.32	s14, [r4, #44]
 275              		.loc 4 20 26 view .LVU80
 276 0016 D4ED0A6A 		vldr.32	s13, [r4, #40]
 277 001a 94ED090A 		vldr.32	s0, [r4, #36]
 278              		.loc 4 20 3 view .LVU81
 279 001e B4EEE67A 		vcmpe.f32	s14, s13
 280 0022 F1EE10FA 		vmrs	APSR_nzcv, FPSCR
 281 0026 14D8     		bhi	.L12
 282              		.loc 4 21 4 is_stmt 1 view .LVU82
 283              		.loc 4 21 44 is_stmt 0 view .LVU83
 284 0028 D4ED087A 		vldr.32	s15, [r4, #32]
 285              		.loc 4 21 42 view .LVU84
ARM GAS  /tmp/cctzcNd8.s 			page 6


 286 002c 30EE670A 		vsub.f32	s0, s0, s15
 287              		.loc 4 21 28 view .LVU85
 288 0030 20EE070A 		vmul.f32	s0, s0, s14
 289              		.loc 4 21 58 view .LVU86
 290 0034 80EE266A 		vdiv.f32	s12, s0, s13
 291              		.loc 4 22 31 view .LVU87
 292 0038 D4ED076A 		vldr.32	s13, [r4, #28]
 293              		.loc 4 21 10 view .LVU88
 294 003c 36EE270A 		vadd.f32	s0, s12, s15
 295              	.LVL14:
 296              		.loc 4 22 4 is_stmt 1 view .LVU89
 297              		.loc 4 22 31 is_stmt 0 view .LVU90
 298 0040 9FED066A 		vldr.32	s12, .L13
 299 0044 C6EE267A 		vdiv.f32	s15, s12, s13
 300              		.loc 4 22 20 view .LVU91
 301 0048 77EE877A 		vadd.f32	s15, s15, s14
 302 004c C4ED0B7A 		vstr.32	s15, [r4, #44]
 303              	.LVL15:
 304              	.L3:
 305              		.loc 4 22 20 view .LVU92
 306              	.LBE132:
 307              	.LBE131:
 308              		.loc 2 58 5 view .LVU93
 309 0050 10BD     		pop	{r4, pc}
 310              	.LVL16:
 311              	.L12:
 312              	.LBB134:
 313              	.LBB133:
 314              		.loc 4 25 4 is_stmt 1 view .LVU94
 315              		.loc 4 26 4 view .LVU95
 316              		.loc 4 26 12 is_stmt 0 view .LVU96
 317 0052 0123     		movs	r3, #1
 318 0054 84F83030 		strb	r3, [r4, #48]
 319              	.LVL17:
 320              		.loc 4 28 3 is_stmt 1 view .LVU97
 321              		.loc 4 28 3 is_stmt 0 view .LVU98
 322              	.LBE133:
 323              	.LBE134:
 324              		.loc 2 57 32 view .LVU99
 325 0058 FAE7     		b	.L3
 326              	.L14:
 327 005a 00BF     		.align	2
 328              	.L13:
 329 005c 00007A44 		.word	1148846080
 330              		.cfi_endproc
 331              	.LFE515:
 332              		.size	_ZN7genAlea8getValueEf, .-_ZN7genAlea8getValueEf
 333              		.section	.text._ZN4Wind5startEv,"axG",%progbits,_ZN4Wind5startEv,comdat
 334              		.align	1
 335              		.weak	_ZN4Wind5startEv
 336              		.syntax unified
 337              		.thumb
 338              		.thumb_func
 339              		.fpu fpv4-sp-d16
 340              		.type	_ZN4Wind5startEv, %function
 341              	_ZN4Wind5startEv:
 342              	.LVL18:
ARM GAS  /tmp/cctzcNd8.s 			page 7


 343              	.LFB516:
 344              		.file 5 "Wind.hpp"
 345              		.loc 5 44 10 is_stmt 1 view -0
 346              		.cfi_startproc
 347              		@ args = 0, pretend = 0, frame = 0
 348              		@ frame_needed = 0, uses_anonymous_args = 0
 349              		.loc 5 47 9 view .LVU101
 350              	.LBB135:
 351              	.LBI135:
 352              		.loc 1 89 13 view .LVU102
 353              	.LBB136:
 354              		.loc 1 90 9 view .LVU103
 355              		.loc 1 90 9 is_stmt 0 view .LVU104
 356              	.LBE136:
 357              	.LBE135:
 358              		.loc 5 44 10 view .LVU105
 359 0000 2DE9F041 		push	{r4, r5, r6, r7, r8, lr}
 360              		.cfi_def_cfa_offset 24
 361              		.cfi_offset 4, -24
 362              		.cfi_offset 5, -20
 363              		.cfi_offset 6, -16
 364              		.cfi_offset 7, -12
 365              		.cfi_offset 8, -8
 366              		.cfi_offset 14, -4
 367              		.loc 5 47 61 view .LVU106
 368 0004 D0ED007A 		vldr.32	s15, [r0]
 369              		.loc 5 44 10 view .LVU107
 370 0008 2DED048B 		vpush.64	{d8, d9}
 371              		.cfi_def_cfa_offset 40
 372              		.cfi_offset 80, -40
 373              		.cfi_offset 81, -36
 374              		.cfi_offset 82, -32
 375              		.cfi_offset 83, -28
 376              		.loc 5 47 61 view .LVU108
 377 000c B7EE008A 		vmov.f32	s16, #1.0e+0
 378 0010 88EE270A 		vdiv.f32	s0, s16, s15
 379              		.loc 5 44 10 view .LVU109
 380 0014 0446     		mov	r4, r0
 381              	.LBB139:
 382              	.LBB140:
 383              		.loc 1 143 19 view .LVU110
 384 0016 0025     		movs	r5, #0
 385              	.LBE140:
 386              	.LBE139:
 387              		.loc 5 48 61 view .LVU111
 388 0018 04F1B008 		add	r8, r4, #176
 389              		.loc 5 49 61 view .LVU112
 390 001c 04F1E807 		add	r7, r4, #232
 391              		.loc 5 50 61 view .LVU113
 392 0020 04F59076 		add	r6, r4, #288
 393              	.LBB144:
 394              	.LBB137:
 395              		.loc 1 90 21 view .LVU114
 396 0024 DFED837A 		vldr.32	s15, .L16
 397              	.LBE137:
 398              	.LBE144:
 399              		.loc 5 47 32 view .LVU115
ARM GAS  /tmp/cctzcNd8.s 			page 8


 400 0028 DFED838A 		vldr.32	s17, .L16+4
 401              	.LBB145:
 402              	.LBB138:
 403              		.loc 1 90 21 view .LVU116
 404 002c 20EE270A 		vmul.f32	s0, s0, s15
 405              	.LBE138:
 406              	.LBE145:
 407              		.loc 5 47 32 view .LVU117
 408 0030 20EE280A 		vmul.f32	s0, s0, s17
 409 0034 FFF7FEFF 		bl	tanf
 410              	.LVL19:
 411              	.LBB146:
 412              	.LBI139:
 413              		.loc 1 138 12 is_stmt 1 view .LVU118
 414              	.LBB141:
 415              		.loc 1 139 9 view .LVU119
 416              		.loc 1 139 21 is_stmt 0 view .LVU120
 417 0038 70EE087A 		vadd.f32	s15, s0, s16
 418              	.LVL20:
 419              		.loc 1 140 9 is_stmt 1 view .LVU121
 420              		.loc 1 141 9 view .LVU122
 421              	.LBE141:
 422              	.LBE146:
 423              		.loc 5 48 61 is_stmt 0 view .LVU123
 424 003c 4046     		mov	r0, r8
 425              	.LBB147:
 426              	.LBB142:
 427              		.loc 1 141 23 view .LVU124
 428 003e 80EE277A 		vdiv.f32	s14, s0, s15
 429              		.loc 1 143 19 view .LVU125
 430 0042 E560     		str	r5, [r4, #12]	@ float
 431              		.loc 1 143 13 view .LVU126
 432 0044 6561     		str	r5, [r4, #20]	@ float
 433              		.loc 1 140 21 view .LVU127
 434 0046 30EE480A 		vsub.f32	s0, s0, s16
 435              	.LVL21:
 436              		.loc 1 141 19 view .LVU128
 437 004a 84ED027A 		vstr.32	s14, [r4, #8]
 438              		.loc 1 141 13 view .LVU129
 439 004e 84ED017A 		vstr.32	s14, [r4, #4]
 440              		.loc 1 142 9 is_stmt 1 view .LVU130
 441              		.loc 1 142 19 is_stmt 0 view .LVU131
 442 0052 80EE277A 		vdiv.f32	s14, s0, s15
 443              	.LBE142:
 444              	.LBE147:
 445              		.loc 5 48 61 view .LVU132
 446 0056 94ED580A 		vldr.32	s0, [r4, #352]
 447              	.LVL22:
 448              	.LBB148:
 449              	.LBB143:
 450              		.loc 1 142 13 view .LVU133
 451 005a 84ED047A 		vstr.32	s14, [r4, #16]
 452              		.loc 1 143 9 is_stmt 1 view .LVU134
 453              	.LVL23:
 454              		.loc 1 143 9 is_stmt 0 view .LVU135
 455              	.LBE143:
 456              	.LBE148:
ARM GAS  /tmp/cctzcNd8.s 			page 9


 457              		.loc 5 48 9 is_stmt 1 view .LVU136
 458              		.loc 5 48 61 is_stmt 0 view .LVU137
 459 005e FFF7FEFF 		bl	_ZN7genAlea8getValueEf
 460              	.LVL24:
 461              	.LBB149:
 462              	.LBI149:
 463              		.loc 1 89 13 is_stmt 1 view .LVU138
 464              	.LBB150:
 465              		.loc 1 90 9 view .LVU139
 466              		.loc 1 90 9 is_stmt 0 view .LVU140
 467              	.LBE150:
 468              	.LBE149:
 469              		.loc 5 48 61 view .LVU141
 470 0062 94ED007A 		vldr.32	s14, [r4]
 471 0066 C8EE077A 		vdiv.f32	s15, s16, s14
 472              	.LBB152:
 473              	.LBB151:
 474              		.loc 1 90 21 view .LVU142
 475 006a 27EE800A 		vmul.f32	s0, s15, s0
 476              	.LBE151:
 477              	.LBE152:
 478              		.loc 5 48 32 view .LVU143
 479 006e 20EE280A 		vmul.f32	s0, s0, s17
 480 0072 FFF7FEFF 		bl	tanf
 481              	.LVL25:
 482 0076 D4ED2B7A 		vldr.32	s15, [r4, #172]
 483              	.LVL26:
 484              	.LBB153:
 485              	.LBI153:
 486              		.loc 1 250 12 is_stmt 1 view .LVU144
 487              	.LBB154:
 488              		.loc 1 253 9 view .LVU145
 489              		.loc 1 256 13 is_stmt 0 view .LVU146
 490 007a 6562     		str	r5, [r4, #36]	@ float
 491              		.loc 1 253 29 view .LVU147
 492 007c 20EE276A 		vmul.f32	s12, s0, s15
 493              	.LVL27:
 494              		.loc 1 254 9 is_stmt 1 view .LVU148
 495              		.loc 1 254 44 is_stmt 0 view .LVU149
 496 0080 B0EE407A 		vmov.f32	s14, s0
 497 0084 A0EE067A 		vfma.f32	s14, s0, s12
 498              	.LBE154:
 499              	.LBE153:
 500              		.loc 5 49 61 view .LVU150
 501 0088 3846     		mov	r0, r7
 502              	.LBB156:
 503              	.LBB155:
 504              		.loc 1 254 48 view .LVU151
 505 008a 37EE877A 		vadd.f32	s14, s15, s14
 506              		.loc 1 254 21 view .LVU152
 507 008e C8EE076A 		vdiv.f32	s13, s16, s14
 508              	.LVL28:
 509              		.loc 1 255 9 is_stmt 1 view .LVU153
 510              		.loc 1 255 17 is_stmt 0 view .LVU154
 511 0092 20EE267A 		vmul.f32	s14, s0, s13
 512              		.loc 1 255 13 view .LVU155
 513 0096 84ED087A 		vstr.32	s14, [r4, #32]
ARM GAS  /tmp/cctzcNd8.s 			page 10


 514              		.loc 1 256 9 is_stmt 1 view .LVU156
 515              		.loc 1 257 9 view .LVU157
 516              		.loc 1 257 15 is_stmt 0 view .LVU158
 517 009a B1EE477A 		vneg.f32	s14, s14
 518              		.loc 1 257 13 view .LVU159
 519 009e 84ED0A7A 		vstr.32	s14, [r4, #40]
 520              		.loc 1 258 9 is_stmt 1 view .LVU160
 521              		.loc 1 258 26 is_stmt 0 view .LVU161
 522 00a2 B0EE677A 		vmov.f32	s14, s15
 523 00a6 90EE067A 		vfnms.f32	s14, s0, s12
 524              		.loc 1 259 20 view .LVU162
 525 00aa 90EE060A 		vfnms.f32	s0, s0, s12
 526              	.LVL29:
 527              		.loc 1 258 31 view .LVU163
 528 00ae 26EE877A 		vmul.f32	s14, s13, s14
 529              		.loc 1 259 24 view .LVU164
 530 00b2 37EE800A 		vadd.f32	s0, s15, s0
 531              		.loc 1 258 31 view .LVU165
 532 00b6 37EE077A 		vadd.f32	s14, s14, s14
 533              		.loc 1 259 29 view .LVU166
 534 00ba 20EE260A 		vmul.f32	s0, s0, s13
 535              		.loc 1 258 13 view .LVU167
 536 00be 84ED0B7A 		vstr.32	s14, [r4, #44]
 537              		.loc 1 259 9 is_stmt 1 view .LVU168
 538              		.loc 1 259 13 is_stmt 0 view .LVU169
 539 00c2 84ED0C0A 		vstr.32	s0, [r4, #48]
 540              	.LVL30:
 541              		.loc 1 259 13 view .LVU170
 542              	.LBE155:
 543              	.LBE156:
 544              		.loc 5 49 9 is_stmt 1 view .LVU171
 545              		.loc 5 49 61 is_stmt 0 view .LVU172
 546 00c6 94ED580A 		vldr.32	s0, [r4, #352]
 547 00ca FFF7FEFF 		bl	_ZN7genAlea8getValueEf
 548              	.LVL31:
 549              	.LBB157:
 550              	.LBI157:
 551              		.loc 1 89 13 is_stmt 1 view .LVU173
 552              	.LBB158:
 553              		.loc 1 90 9 view .LVU174
 554              		.loc 1 90 9 is_stmt 0 view .LVU175
 555              	.LBE158:
 556              	.LBE157:
 557              		.loc 5 49 61 view .LVU176
 558 00ce 94ED007A 		vldr.32	s14, [r4]
 559 00d2 C8EE077A 		vdiv.f32	s15, s16, s14
 560              	.LBB160:
 561              	.LBB159:
 562              		.loc 1 90 21 view .LVU177
 563 00d6 27EE800A 		vmul.f32	s0, s15, s0
 564              	.LBE159:
 565              	.LBE160:
 566              		.loc 5 49 32 view .LVU178
 567 00da 20EE280A 		vmul.f32	s0, s0, s17
 568 00de FFF7FEFF 		bl	tanf
 569              	.LVL32:
 570 00e2 D4ED2B7A 		vldr.32	s15, [r4, #172]
ARM GAS  /tmp/cctzcNd8.s 			page 11


 571              	.LVL33:
 572              	.LBB161:
 573              	.LBI161:
 574              		.loc 1 250 12 is_stmt 1 view .LVU179
 575              	.LBB162:
 576              		.loc 1 253 9 view .LVU180
 577              		.loc 1 256 13 is_stmt 0 view .LVU181
 578 00e6 2564     		str	r5, [r4, #64]	@ float
 579              		.loc 1 253 29 view .LVU182
 580 00e8 20EE276A 		vmul.f32	s12, s0, s15
 581              	.LVL34:
 582              		.loc 1 254 9 is_stmt 1 view .LVU183
 583              		.loc 1 254 44 is_stmt 0 view .LVU184
 584 00ec B0EE407A 		vmov.f32	s14, s0
 585 00f0 A0EE067A 		vfma.f32	s14, s0, s12
 586              	.LBE162:
 587              	.LBE161:
 588              		.loc 5 50 61 view .LVU185
 589 00f4 3046     		mov	r0, r6
 590              	.LBB164:
 591              	.LBB163:
 592              		.loc 1 254 48 view .LVU186
 593 00f6 37EE877A 		vadd.f32	s14, s15, s14
 594              		.loc 1 254 21 view .LVU187
 595 00fa C8EE076A 		vdiv.f32	s13, s16, s14
 596              	.LVL35:
 597              		.loc 1 255 9 is_stmt 1 view .LVU188
 598              		.loc 1 255 17 is_stmt 0 view .LVU189
 599 00fe 20EE267A 		vmul.f32	s14, s0, s13
 600              		.loc 1 255 13 view .LVU190
 601 0102 84ED0F7A 		vstr.32	s14, [r4, #60]
 602              		.loc 1 256 9 is_stmt 1 view .LVU191
 603              		.loc 1 257 9 view .LVU192
 604              		.loc 1 257 15 is_stmt 0 view .LVU193
 605 0106 B1EE477A 		vneg.f32	s14, s14
 606              		.loc 1 257 13 view .LVU194
 607 010a 84ED117A 		vstr.32	s14, [r4, #68]
 608              		.loc 1 258 9 is_stmt 1 view .LVU195
 609              		.loc 1 258 26 is_stmt 0 view .LVU196
 610 010e B0EE677A 		vmov.f32	s14, s15
 611 0112 90EE067A 		vfnms.f32	s14, s0, s12
 612              		.loc 1 259 20 view .LVU197
 613 0116 90EE060A 		vfnms.f32	s0, s0, s12
 614              	.LVL36:
 615              		.loc 1 258 31 view .LVU198
 616 011a 26EE877A 		vmul.f32	s14, s13, s14
 617              		.loc 1 259 24 view .LVU199
 618 011e 37EE800A 		vadd.f32	s0, s15, s0
 619              		.loc 1 258 31 view .LVU200
 620 0122 37EE077A 		vadd.f32	s14, s14, s14
 621              		.loc 1 259 29 view .LVU201
 622 0126 20EE260A 		vmul.f32	s0, s0, s13
 623              		.loc 1 258 13 view .LVU202
 624 012a 84ED127A 		vstr.32	s14, [r4, #72]
 625              		.loc 1 259 9 is_stmt 1 view .LVU203
 626              		.loc 1 259 13 is_stmt 0 view .LVU204
 627 012e 84ED130A 		vstr.32	s0, [r4, #76]
ARM GAS  /tmp/cctzcNd8.s 			page 12


 628              	.LVL37:
 629              		.loc 1 259 13 view .LVU205
 630              	.LBE163:
 631              	.LBE164:
 632              		.loc 5 50 9 is_stmt 1 view .LVU206
 633              		.loc 5 50 61 is_stmt 0 view .LVU207
 634 0132 94ED580A 		vldr.32	s0, [r4, #352]
 635 0136 FFF7FEFF 		bl	_ZN7genAlea8getValueEf
 636              	.LVL38:
 637 013a D4ED007A 		vldr.32	s15, [r4]
 638 013e 88EE279A 		vdiv.f32	s18, s16, s15
 639              	.LVL39:
 640              	.LBB165:
 641              	.LBI165:
 642              		.loc 1 89 13 is_stmt 1 view .LVU208
 643              	.LBB166:
 644              		.loc 1 90 9 view .LVU209
 645              		.loc 1 90 21 is_stmt 0 view .LVU210
 646 0142 20EE090A 		vmul.f32	s0, s0, s18
 647              	.LBE166:
 648              	.LBE165:
 649              		.loc 5 50 32 view .LVU211
 650 0146 20EE280A 		vmul.f32	s0, s0, s17
 651 014a FFF7FEFF 		bl	tanf
 652              	.LVL40:
 653 014e D4ED2B7A 		vldr.32	s15, [r4, #172]
 654              	.LVL41:
 655              	.LBB167:
 656              	.LBI167:
 657              		.loc 1 250 12 is_stmt 1 view .LVU212
 658              	.LBB168:
 659              		.loc 1 253 9 view .LVU213
 660              		.loc 1 256 13 is_stmt 0 view .LVU214
 661 0152 E565     		str	r5, [r4, #92]	@ float
 662              		.loc 1 253 29 view .LVU215
 663 0154 20EE276A 		vmul.f32	s12, s0, s15
 664              	.LVL42:
 665              		.loc 1 254 9 is_stmt 1 view .LVU216
 666              		.loc 1 254 44 is_stmt 0 view .LVU217
 667 0158 B0EE407A 		vmov.f32	s14, s0
 668 015c A0EE067A 		vfma.f32	s14, s0, s12
 669              		.loc 1 254 48 view .LVU218
 670 0160 37EE877A 		vadd.f32	s14, s15, s14
 671              		.loc 1 254 21 view .LVU219
 672 0164 C8EE076A 		vdiv.f32	s13, s16, s14
 673              	.LVL43:
 674              		.loc 1 255 9 is_stmt 1 view .LVU220
 675              		.loc 1 255 17 is_stmt 0 view .LVU221
 676 0168 20EE267A 		vmul.f32	s14, s0, s13
 677              		.loc 1 255 13 view .LVU222
 678 016c 84ED167A 		vstr.32	s14, [r4, #88]
 679              		.loc 1 256 9 is_stmt 1 view .LVU223
 680              		.loc 1 257 9 view .LVU224
 681              		.loc 1 257 15 is_stmt 0 view .LVU225
 682 0170 B1EE477A 		vneg.f32	s14, s14
 683              		.loc 1 257 13 view .LVU226
 684 0174 84ED187A 		vstr.32	s14, [r4, #96]
ARM GAS  /tmp/cctzcNd8.s 			page 13


 685              		.loc 1 258 9 is_stmt 1 view .LVU227
 686              		.loc 1 258 26 is_stmt 0 view .LVU228
 687 0178 B0EE677A 		vmov.f32	s14, s15
 688 017c 90EE067A 		vfnms.f32	s14, s0, s12
 689              		.loc 1 259 20 view .LVU229
 690 0180 90EE060A 		vfnms.f32	s0, s0, s12
 691              	.LVL44:
 692              		.loc 1 258 31 view .LVU230
 693 0184 26EE877A 		vmul.f32	s14, s13, s14
 694              		.loc 1 259 24 view .LVU231
 695 0188 37EE800A 		vadd.f32	s0, s15, s0
 696              		.loc 1 258 31 view .LVU232
 697 018c 37EE077A 		vadd.f32	s14, s14, s14
 698              		.loc 1 259 29 view .LVU233
 699 0190 20EE260A 		vmul.f32	s0, s0, s13
 700              		.loc 1 258 13 view .LVU234
 701 0194 84ED197A 		vstr.32	s14, [r4, #100]
 702              		.loc 1 259 9 is_stmt 1 view .LVU235
 703              		.loc 1 259 13 is_stmt 0 view .LVU236
 704 0198 84ED1A0A 		vstr.32	s0, [r4, #104]
 705              	.LVL45:
 706              		.loc 1 259 13 view .LVU237
 707              	.LBE168:
 708              	.LBE167:
 709              		.loc 5 51 9 is_stmt 1 view .LVU238
 710              	.LBB169:
 711              	.LBI169:
 712              		.loc 1 89 13 view .LVU239
 713              	.LBB170:
 714              		.loc 1 90 9 view .LVU240
 715              		.loc 1 90 21 is_stmt 0 view .LVU241
 716 019c 94ED570A 		vldr.32	s0, [r4, #348]
 717 01a0 29EE000A 		vmul.f32	s0, s18, s0
 718              	.LBE170:
 719              	.LBE169:
 720              		.loc 5 51 36 view .LVU242
 721 01a4 20EE280A 		vmul.f32	s0, s0, s17
 722 01a8 FFF7FEFF 		bl	tanf
 723              	.LVL46:
 724 01ac D4ED567A 		vldr.32	s15, [r4, #344]
 725              	.LVL47:
 726              	.LBB171:
 727              	.LBI171:
 728              		.loc 1 250 12 is_stmt 1 view .LVU243
 729              	.LBB172:
 730              		.loc 1 253 9 view .LVU244
 731              		.loc 1 256 13 is_stmt 0 view .LVU245
 732 01b0 A567     		str	r5, [r4, #120]	@ float
 733              		.loc 1 253 29 view .LVU246
 734 01b2 60EE275A 		vmul.f32	s11, s0, s15
 735              	.LVL48:
 736              		.loc 1 254 9 is_stmt 1 view .LVU247
 737              		.loc 1 254 44 is_stmt 0 view .LVU248
 738 01b6 B0EE407A 		vmov.f32	s14, s0
 739 01ba A0EE257A 		vfma.f32	s14, s0, s11
 740              	.LBE172:
 741              	.LBE171:
ARM GAS  /tmp/cctzcNd8.s 			page 14


 742              		.loc 5 53 26 view .LVU249
 743 01be 4046     		mov	r0, r8
 744              	.LBB176:
 745              	.LBB173:
 746              		.loc 1 259 20 view .LVU250
 747 01c0 F0EE406A 		vmov.f32	s13, s0
 748              		.loc 1 254 48 view .LVU251
 749 01c4 37EE877A 		vadd.f32	s14, s15, s14
 750              		.loc 1 259 20 view .LVU252
 751 01c8 D0EE256A 		vfnms.f32	s13, s0, s11
 752              		.loc 1 254 21 view .LVU253
 753 01cc 88EE076A 		vdiv.f32	s12, s16, s14
 754              	.LVL49:
 755              		.loc 1 255 9 is_stmt 1 view .LVU254
 756              		.loc 1 259 24 is_stmt 0 view .LVU255
 757 01d0 77EEA66A 		vadd.f32	s13, s15, s13
 758              		.loc 1 255 17 view .LVU256
 759 01d4 20EE067A 		vmul.f32	s14, s0, s12
 760              		.loc 1 259 29 view .LVU257
 761 01d8 66EE866A 		vmul.f32	s13, s13, s12
 762              		.loc 1 255 13 view .LVU258
 763 01dc 84ED1D7A 		vstr.32	s14, [r4, #116]
 764              		.loc 1 256 9 is_stmt 1 view .LVU259
 765              		.loc 1 257 9 view .LVU260
 766              		.loc 1 257 15 is_stmt 0 view .LVU261
 767 01e0 B1EE477A 		vneg.f32	s14, s14
 768              		.loc 1 257 13 view .LVU262
 769 01e4 84ED1F7A 		vstr.32	s14, [r4, #124]
 770              		.loc 1 258 9 is_stmt 1 view .LVU263
 771              		.loc 1 258 26 is_stmt 0 view .LVU264
 772 01e8 B0EE677A 		vmov.f32	s14, s15
 773 01ec 90EE257A 		vfnms.f32	s14, s0, s11
 774              	.LBE173:
 775              	.LBE176:
 776              	.LBB177:
 777              	.LBB178:
 778              		.loc 1 274 26 view .LVU265
 779 01f0 E0EE257A 		vfma.f32	s15, s0, s11
 780              	.LVL50:
 781              		.loc 1 274 26 view .LVU266
 782              	.LBE178:
 783              	.LBE177:
 784              	.LBB181:
 785              	.LBB174:
 786              		.loc 1 258 31 view .LVU267
 787 01f4 26EE077A 		vmul.f32	s14, s12, s14
 788              	.LBE174:
 789              	.LBE181:
 790              	.LBB182:
 791              	.LBB179:
 792              		.loc 1 274 31 view .LVU268
 793 01f8 67EE867A 		vmul.f32	s15, s15, s12
 794              	.LBE179:
 795              	.LBE182:
 796              	.LBB183:
 797              	.LBB175:
 798              		.loc 1 258 31 view .LVU269
ARM GAS  /tmp/cctzcNd8.s 			page 15


 799 01fc 37EE077A 		vadd.f32	s14, s14, s14
 800              		.loc 1 259 13 view .LVU270
 801 0200 C4ED216A 		vstr.32	s13, [r4, #132]
 802              		.loc 1 258 13 view .LVU271
 803 0204 84ED207A 		vstr.32	s14, [r4, #128]
 804              		.loc 1 259 9 is_stmt 1 view .LVU272
 805              	.LVL51:
 806              		.loc 1 259 9 is_stmt 0 view .LVU273
 807              	.LBE175:
 808              	.LBE183:
 809              		.loc 5 52 9 is_stmt 1 view .LVU274
 810              		.loc 1 90 9 view .LVU275
 811              	.LBB184:
 812              	.LBI177:
 813              		.loc 1 269 12 view .LVU276
 814              	.LBB180:
 815              		.loc 1 272 9 view .LVU277
 816              		.loc 1 273 9 view .LVU278
 817              		.loc 1 274 9 view .LVU279
 818              		.loc 1 274 19 is_stmt 0 view .LVU280
 819 0208 C4ED267A 		vstr.32	s15, [r4, #152]
 820              		.loc 1 274 13 view .LVU281
 821 020c C4ED247A 		vstr.32	s15, [r4, #144]
 822              		.loc 1 275 9 is_stmt 1 view .LVU282
 823              		.loc 1 275 19 is_stmt 0 view .LVU283
 824 0210 84ED277A 		vstr.32	s14, [r4, #156]
 825              		.loc 1 275 13 view .LVU284
 826 0214 84ED257A 		vstr.32	s14, [r4, #148]
 827              		.loc 1 276 9 is_stmt 1 view .LVU285
 828              		.loc 1 276 13 is_stmt 0 view .LVU286
 829 0218 C4ED286A 		vstr.32	s13, [r4, #160]
 830              	.LVL52:
 831              		.loc 1 276 13 view .LVU287
 832              	.LBE180:
 833              	.LBE184:
 834              		.loc 5 53 9 is_stmt 1 view .LVU288
 835              		.loc 5 53 26 is_stmt 0 view .LVU289
 836 021c FFF7FEFF 		bl	_ZN7genAlea10resetValueEv
 837              	.LVL53:
 838              		.loc 5 54 9 is_stmt 1 view .LVU290
 839              		.loc 5 54 26 is_stmt 0 view .LVU291
 840 0220 3846     		mov	r0, r7
 841 0222 FFF7FEFF 		bl	_ZN7genAlea10resetValueEv
 842              	.LVL54:
 843              		.loc 5 55 9 is_stmt 1 view .LVU292
 844              		.loc 5 55 26 is_stmt 0 view .LVU293
 845 0226 3046     		mov	r0, r6
 846 0228 FFF7FEFF 		bl	_ZN7genAlea10resetValueEv
 847              	.LVL55:
 848              		.loc 5 56 5 view .LVU294
 849 022c BDEC048B 		vldm	sp!, {d8-d9}
 850              		.cfi_restore 82
 851              		.cfi_restore 83
 852              		.cfi_restore 80
 853              		.cfi_restore 81
 854              		.cfi_def_cfa_offset 24
 855 0230 BDE8F081 		pop	{r4, r5, r6, r7, r8, pc}
ARM GAS  /tmp/cctzcNd8.s 			page 16


 856              	.LVL56:
 857              	.L17:
 858              		.loc 5 56 5 view .LVU295
 859              		.align	2
 860              	.L16:
 861 0234 00004843 		.word	1128792064
 862 0238 DB0F4940 		.word	1078530011
 863              		.cfi_endproc
 864              	.LFE516:
 865              		.size	_ZN4Wind5startEv, .-_ZN4Wind5startEv
 866              		.section	.text._ZN4Wind7processEv,"axG",%progbits,_ZN4Wind7processEv,comdat
 867              		.align	1
 868              		.weak	_ZN4Wind7processEv
 869              		.syntax unified
 870              		.thumb
 871              		.thumb_func
 872              		.fpu fpv4-sp-d16
 873              		.type	_ZN4Wind7processEv, %function
 874              	_ZN4Wind7processEv:
 875              	.LVL57:
 876              	.LFB519:
 877              		.loc 5 84 11 is_stmt 1 view -0
 878              		.cfi_startproc
 879              		@ args = 0, pretend = 0, frame = 0
 880              		@ frame_needed = 0, uses_anonymous_args = 0
 881              		.loc 5 86 9 view .LVU297
 882              	.LBB231:
 883              	.LBI231:
 884              		.loc 3 779 23 view .LVU298
 885              	.LBB232:
 886              		.loc 3 780 5 view .LVU299
 887              	.LBE232:
 888              	.LBE231:
 889              		.loc 5 84 11 is_stmt 0 view .LVU300
 890 0000 10B5     		push	{r4, lr}
 891              		.cfi_def_cfa_offset 8
 892              		.cfi_offset 4, -8
 893              		.cfi_offset 14, -4
 894 0002 2DED0C8B 		vpush.64	{d8, d9, d10, d11, d12, d13}
 895              		.cfi_def_cfa_offset 56
 896              		.cfi_offset 80, -56
 897              		.cfi_offset 81, -52
 898              		.cfi_offset 82, -48
 899              		.cfi_offset 83, -44
 900              		.cfi_offset 84, -40
 901              		.cfi_offset 85, -36
 902              		.cfi_offset 86, -32
 903              		.cfi_offset 87, -28
 904              		.cfi_offset 88, -24
 905              		.cfi_offset 89, -20
 906              		.cfi_offset 90, -16
 907              		.cfi_offset 91, -12
 908              		.loc 5 84 11 view .LVU301
 909 0006 0446     		mov	r4, r0
 910              	.LBB235:
 911              	.LBB233:
 912              		.loc 3 780 22 view .LVU302
ARM GAS  /tmp/cctzcNd8.s 			page 17


 913 0008 FFF7FEFF 		bl	_osc_white
 914              	.LVL58:
 915              		.loc 3 780 22 view .LVU303
 916              	.LBE233:
 917              	.LBE235:
 918              	.LBB236:
 919              	.LBB237:
 920              		.loc 1 385 13 view .LVU304
 921 000c D4ED017A 		vldr.32	s15, [r4, #4]
 922 0010 D4ED069A 		vldr.32	s19, [r4, #24]
 923              		.loc 1 387 11 view .LVU305
 924 0014 94ED027A 		vldr.32	s14, [r4, #8]
 925              	.LBE237:
 926              	.LBE236:
 927              		.loc 5 89 32 view .LVU306
 928 0018 9FEDCD9A 		vldr.32	s18, .L21
 929              	.LBB242:
 930              	.LBB243:
 931              		.loc 1 256 13 view .LVU307
 932 001c 9FEDCDAA 		vldr.32	s20, .L21+4
 933              	.LBE243:
 934              	.LBE242:
 935              		.loc 5 100 22 view .LVU308
 936 0020 DFEDCDDA 		vldr.32	s27, .L21+8
 937              	.LBB251:
 938              	.LBB238:
 939              		.loc 1 385 13 view .LVU309
 940 0024 E7EE809A 		vfma.f32	s19, s15, s0
 941              	.LBE238:
 942              	.LBE251:
 943              		.loc 5 89 61 view .LVU310
 944 0028 04F1B000 		add	r0, r4, #176
 945              	.LBB252:
 946              	.LBB239:
 947              		.loc 1 387 26 view .LVU311
 948 002c D4ED047A 		vldr.32	s15, [r4, #16]
 949              		.loc 1 387 11 view .LVU312
 950 0030 67EEE97A 		vnmul.f32	s15, s15, s19
 951              	.LBE239:
 952              	.LBE252:
 953              	.LBB253:
 954              	.LBB234:
 955              		.loc 3 780 22 view .LVU313
 956 0034 B0EE408A 		vmov.f32	s16, s0
 957              	.LVL59:
 958              		.loc 3 780 22 view .LVU314
 959              	.LBE234:
 960              	.LBE253:
 961              		.loc 5 87 9 is_stmt 1 view .LVU315
 962              	.LBB254:
 963              	.LBI236:
 964              		.loc 1 384 11 view .LVU316
 965              	.LBB240:
 966              		.loc 1 385 7 view .LVU317
 967              		.loc 1 386 7 view .LVU318
 968              		.loc 1 387 7 view .LVU319
 969              		.loc 1 387 11 is_stmt 0 view .LVU320
ARM GAS  /tmp/cctzcNd8.s 			page 18


 970 0038 E7EE007A 		vfma.f32	s15, s14, s0
 971              	.LBE240:
 972              	.LBE254:
 973              		.loc 5 89 61 view .LVU321
 974 003c 94ED580A 		vldr.32	s0, [r4, #352]
 975              	.LVL60:
 976              	.LBB255:
 977              	.LBB241:
 978              		.loc 1 387 11 view .LVU322
 979 0040 C4ED067A 		vstr.32	s15, [r4, #24]
 980              		.loc 1 388 7 is_stmt 1 view .LVU323
 981              	.LVL61:
 982              		.loc 1 388 7 is_stmt 0 view .LVU324
 983              	.LBE241:
 984              	.LBE255:
 985              		.loc 5 89 9 is_stmt 1 view .LVU325
 986              		.loc 5 89 61 is_stmt 0 view .LVU326
 987 0044 FFF7FEFF 		bl	_ZN7genAlea8getValueEf
 988              	.LVL62:
 989              	.LBB256:
 990              	.LBI256:
 991              		.loc 1 89 13 is_stmt 1 view .LVU327
 992              	.LBB257:
 993              		.loc 1 90 9 view .LVU328
 994              		.loc 1 90 9 is_stmt 0 view .LVU329
 995              	.LBE257:
 996              	.LBE256:
 997              		.loc 5 89 61 view .LVU330
 998 0048 94ED007A 		vldr.32	s14, [r4]
 999 004c F7EE008A 		vmov.f32	s17, #1.0e+0
 1000 0050 C8EE877A 		vdiv.f32	s15, s17, s14
 1001              		.loc 5 98 23 view .LVU331
 1002 0054 F3EE0EBA 		vmov.f32	s23, #3.0e+1
 1003              	.LBB259:
 1004              	.LBB258:
 1005              		.loc 1 90 21 view .LVU332
 1006 0058 27EE800A 		vmul.f32	s0, s15, s0
 1007              	.LBE258:
 1008              	.LBE259:
 1009              		.loc 5 89 32 view .LVU333
 1010 005c 20EE090A 		vmul.f32	s0, s0, s18
 1011 0060 FFF7FEFF 		bl	tanf
 1012              	.LVL63:
 1013 0064 D4ED2B7A 		vldr.32	s15, [r4, #172]
 1014              	.LVL64:
 1015              	.LBB260:
 1016              	.LBI242:
 1017              		.loc 1 250 12 is_stmt 1 view .LVU334
 1018              	.LBB244:
 1019              		.loc 1 253 9 view .LVU335
 1020              	.LBE244:
 1021              	.LBE260:
 1022              	.LBB261:
 1023              	.LBB262:
 1024              		.loc 1 368 13 is_stmt 0 view .LVU336
 1025 0068 D4ED0DAA 		vldr.32	s21, [r4, #52]
 1026              	.LBE262:
ARM GAS  /tmp/cctzcNd8.s 			page 19


 1027              	.LBE261:
 1028              	.LBB268:
 1029              	.LBB245:
 1030              		.loc 1 256 13 view .LVU337
 1031 006c 84ED09AA 		vstr.32	s20, [r4, #36]
 1032              		.loc 1 253 29 view .LVU338
 1033 0070 60EE275A 		vmul.f32	s11, s0, s15
 1034              	.LVL65:
 1035              		.loc 1 254 9 is_stmt 1 view .LVU339
 1036              		.loc 1 254 44 is_stmt 0 view .LVU340
 1037 0074 B0EE407A 		vmov.f32	s14, s0
 1038 0078 A0EE257A 		vfma.f32	s14, s0, s11
 1039              	.LBE245:
 1040              	.LBE268:
 1041              		.loc 5 92 61 view .LVU341
 1042 007c 04F1E800 		add	r0, r4, #232
 1043              	.LBB269:
 1044              	.LBB246:
 1045              		.loc 1 254 48 view .LVU342
 1046 0080 37EE877A 		vadd.f32	s14, s15, s14
 1047              		.loc 1 254 21 view .LVU343
 1048 0084 88EE876A 		vdiv.f32	s12, s17, s14
 1049              	.LVL66:
 1050              		.loc 1 255 9 is_stmt 1 view .LVU344
 1051              		.loc 1 258 26 is_stmt 0 view .LVU345
 1052 0088 B0EE677A 		vmov.f32	s14, s15
 1053              		.loc 1 255 17 view .LVU346
 1054 008c 60EE066A 		vmul.f32	s13, s0, s12
 1055              		.loc 1 258 26 view .LVU347
 1056 0090 90EE257A 		vfnms.f32	s14, s0, s11
 1057              		.loc 1 259 20 view .LVU348
 1058 0094 90EE250A 		vfnms.f32	s0, s0, s11
 1059              	.LVL67:
 1060              		.loc 1 257 15 view .LVU349
 1061 0098 B1EE665A 		vneg.f32	s10, s13
 1062              	.LBE246:
 1063              	.LBE269:
 1064              	.LBB270:
 1065              	.LBB263:
 1066              		.loc 1 368 13 view .LVU350
 1067 009c E6EE88AA 		vfma.f32	s21, s13, s16
 1068              	.LBE263:
 1069              	.LBE270:
 1070              	.LBB271:
 1071              	.LBB247:
 1072              		.loc 1 259 24 view .LVU351
 1073 00a0 77EE807A 		vadd.f32	s15, s15, s0
 1074              	.LVL68:
 1075              		.loc 1 255 13 view .LVU352
 1076 00a4 C4ED086A 		vstr.32	s13, [r4, #32]
 1077              		.loc 1 256 9 is_stmt 1 view .LVU353
 1078              		.loc 1 257 9 view .LVU354
 1079              	.LBE247:
 1080              	.LBE271:
 1081              	.LBB272:
 1082              	.LBB264:
 1083              		.loc 1 369 30 is_stmt 0 view .LVU355
ARM GAS  /tmp/cctzcNd8.s 			page 20


 1084 00a8 D4ED0E6A 		vldr.32	s13, [r4, #56]
 1085              	.LBE264:
 1086              	.LBE272:
 1087              	.LBB273:
 1088              	.LBB248:
 1089              		.loc 1 257 13 view .LVU356
 1090 00ac 84ED0A5A 		vstr.32	s10, [r4, #40]
 1091              		.loc 1 258 9 is_stmt 1 view .LVU357
 1092              		.loc 1 259 29 is_stmt 0 view .LVU358
 1093 00b0 67EE867A 		vmul.f32	s15, s15, s12
 1094              		.loc 1 258 31 view .LVU359
 1095 00b4 26EE077A 		vmul.f32	s14, s12, s14
 1096              	.LBE248:
 1097              	.LBE273:
 1098              	.LBB274:
 1099              	.LBB265:
 1100              		.loc 1 369 30 view .LVU360
 1101 00b8 E8EE0A6A 		vfma.f32	s13, s16, s20
 1102              	.LBE265:
 1103              	.LBE274:
 1104              	.LBB275:
 1105              	.LBB249:
 1106              		.loc 1 258 31 view .LVU361
 1107 00bc 37EE077A 		vadd.f32	s14, s14, s14
 1108              		.loc 1 259 13 view .LVU362
 1109 00c0 C4ED0C7A 		vstr.32	s15, [r4, #48]
 1110              	.LBE249:
 1111              	.LBE275:
 1112              	.LBB276:
 1113              	.LBB266:
 1114              		.loc 1 372 11 view .LVU363
 1115 00c4 67EEEA7A 		vnmul.f32	s15, s15, s21
 1116              		.loc 1 371 11 view .LVU364
 1117 00c8 EAEEC76A 		vfms.f32	s13, s21, s14
 1118              		.loc 1 372 11 view .LVU365
 1119 00cc E5EE087A 		vfma.f32	s15, s10, s16
 1120              		.loc 1 371 11 view .LVU366
 1121 00d0 C4ED0D6A 		vstr.32	s13, [r4, #52]
 1122              	.LBE266:
 1123              	.LBE276:
 1124              	.LBB277:
 1125              	.LBB250:
 1126              		.loc 1 258 13 view .LVU367
 1127 00d4 84ED0B7A 		vstr.32	s14, [r4, #44]
 1128              		.loc 1 259 9 is_stmt 1 view .LVU368
 1129              	.LVL69:
 1130              		.loc 1 259 9 is_stmt 0 view .LVU369
 1131              	.LBE250:
 1132              	.LBE277:
 1133              		.loc 5 90 9 is_stmt 1 view .LVU370
 1134              	.LBB278:
 1135              	.LBI261:
 1136              		.loc 1 367 11 view .LVU371
 1137              	.LBB267:
 1138              		.loc 1 368 7 view .LVU372
 1139              		.loc 1 369 7 view .LVU373
 1140              		.loc 1 370 7 view .LVU374
ARM GAS  /tmp/cctzcNd8.s 			page 21


 1141              		.loc 1 371 7 view .LVU375
 1142              		.loc 1 372 7 view .LVU376
 1143              		.loc 1 372 11 is_stmt 0 view .LVU377
 1144 00d8 C4ED0E7A 		vstr.32	s15, [r4, #56]
 1145              		.loc 1 373 7 is_stmt 1 view .LVU378
 1146              	.LVL70:
 1147              		.loc 1 373 7 is_stmt 0 view .LVU379
 1148              	.LBE267:
 1149              	.LBE278:
 1150              		.loc 5 92 9 is_stmt 1 view .LVU380
 1151              		.loc 5 92 61 is_stmt 0 view .LVU381
 1152 00dc 94ED580A 		vldr.32	s0, [r4, #352]
 1153 00e0 FFF7FEFF 		bl	_ZN7genAlea8getValueEf
 1154              	.LVL71:
 1155              	.LBB279:
 1156              	.LBI279:
 1157              		.loc 1 89 13 is_stmt 1 view .LVU382
 1158              	.LBB280:
 1159              		.loc 1 90 9 view .LVU383
 1160              		.loc 1 90 9 is_stmt 0 view .LVU384
 1161              	.LBE280:
 1162              	.LBE279:
 1163              		.loc 5 92 61 view .LVU385
 1164 00e4 94ED007A 		vldr.32	s14, [r4]
 1165 00e8 C8EE877A 		vdiv.f32	s15, s17, s14
 1166              	.LBB282:
 1167              	.LBB281:
 1168              		.loc 1 90 21 view .LVU386
 1169 00ec 27EE800A 		vmul.f32	s0, s15, s0
 1170              	.LBE281:
 1171              	.LBE282:
 1172              		.loc 5 92 32 view .LVU387
 1173 00f0 20EE090A 		vmul.f32	s0, s0, s18
 1174 00f4 FFF7FEFF 		bl	tanf
 1175              	.LVL72:
 1176 00f8 D4ED2B7A 		vldr.32	s15, [r4, #172]
 1177              	.LVL73:
 1178              	.LBB283:
 1179              	.LBI283:
 1180              		.loc 1 250 12 is_stmt 1 view .LVU388
 1181              	.LBB284:
 1182              		.loc 1 253 9 view .LVU389
 1183              		.loc 1 256 13 is_stmt 0 view .LVU390
 1184 00fc 84ED10AA 		vstr.32	s20, [r4, #64]
 1185              		.loc 1 253 29 view .LVU391
 1186 0100 60EE275A 		vmul.f32	s11, s0, s15
 1187              	.LVL74:
 1188              		.loc 1 254 9 is_stmt 1 view .LVU392
 1189              		.loc 1 254 44 is_stmt 0 view .LVU393
 1190 0104 B0EE407A 		vmov.f32	s14, s0
 1191 0108 A0EE257A 		vfma.f32	s14, s0, s11
 1192              	.LBE284:
 1193              	.LBE283:
 1194              		.loc 5 95 61 view .LVU394
 1195 010c 04F59070 		add	r0, r4, #288
 1196              	.LBB290:
 1197              	.LBB285:
ARM GAS  /tmp/cctzcNd8.s 			page 22


 1198              		.loc 1 254 48 view .LVU395
 1199 0110 37EE877A 		vadd.f32	s14, s15, s14
 1200              		.loc 1 254 21 view .LVU396
 1201 0114 88EE876A 		vdiv.f32	s12, s17, s14
 1202              	.LVL75:
 1203              		.loc 1 255 9 is_stmt 1 view .LVU397
 1204              		.loc 1 258 26 is_stmt 0 view .LVU398
 1205 0118 B0EE677A 		vmov.f32	s14, s15
 1206              		.loc 1 255 17 view .LVU399
 1207 011c 60EE066A 		vmul.f32	s13, s0, s12
 1208              		.loc 1 258 26 view .LVU400
 1209 0120 90EE257A 		vfnms.f32	s14, s0, s11
 1210              		.loc 1 259 20 view .LVU401
 1211 0124 90EE250A 		vfnms.f32	s0, s0, s11
 1212              	.LVL76:
 1213              		.loc 1 258 31 view .LVU402
 1214 0128 26EE077A 		vmul.f32	s14, s12, s14
 1215              		.loc 1 259 24 view .LVU403
 1216 012c 77EE807A 		vadd.f32	s15, s15, s0
 1217              	.LVL77:
 1218              		.loc 1 257 15 view .LVU404
 1219 0130 B1EE665A 		vneg.f32	s10, s13
 1220              		.loc 1 259 29 view .LVU405
 1221 0134 67EE867A 		vmul.f32	s15, s15, s12
 1222              	.LBE285:
 1223              	.LBE290:
 1224              	.LBB291:
 1225              	.LBB292:
 1226              		.loc 1 368 13 view .LVU406
 1227 0138 94ED146A 		vldr.32	s12, [r4, #80]
 1228              	.LVL78:
 1229              		.loc 1 368 13 view .LVU407
 1230              	.LBE292:
 1231              	.LBE291:
 1232              	.LBB298:
 1233              	.LBB286:
 1234              		.loc 1 255 13 view .LVU408
 1235 013c C4ED0F6A 		vstr.32	s13, [r4, #60]
 1236              		.loc 1 256 9 is_stmt 1 view .LVU409
 1237              		.loc 1 257 9 view .LVU410
 1238              	.LBE286:
 1239              	.LBE298:
 1240              	.LBB299:
 1241              	.LBB293:
 1242              		.loc 1 368 13 is_stmt 0 view .LVU411
 1243 0140 A6EE886A 		vfma.f32	s12, s13, s16
 1244              		.loc 1 369 30 view .LVU412
 1245 0144 D4ED156A 		vldr.32	s13, [r4, #84]
 1246              	.LBE293:
 1247              	.LBE299:
 1248              	.LBB300:
 1249              	.LBB287:
 1250              		.loc 1 259 13 view .LVU413
 1251 0148 C4ED137A 		vstr.32	s15, [r4, #76]
 1252              	.LBE287:
 1253              	.LBE300:
 1254              	.LBB301:
ARM GAS  /tmp/cctzcNd8.s 			page 23


 1255              	.LBB294:
 1256              		.loc 1 369 30 view .LVU414
 1257 014c E8EE0A6A 		vfma.f32	s13, s16, s20
 1258              	.LBE294:
 1259              	.LBE301:
 1260              	.LBB302:
 1261              	.LBB288:
 1262              		.loc 1 258 31 view .LVU415
 1263 0150 37EE077A 		vadd.f32	s14, s14, s14
 1264              	.LBE288:
 1265              	.LBE302:
 1266              	.LBB303:
 1267              	.LBB295:
 1268              		.loc 1 372 11 view .LVU416
 1269 0154 67EEC67A 		vnmul.f32	s15, s15, s12
 1270              		.loc 1 371 11 view .LVU417
 1271 0158 E6EE476A 		vfms.f32	s13, s12, s14
 1272              		.loc 1 372 11 view .LVU418
 1273 015c E5EE087A 		vfma.f32	s15, s10, s16
 1274              	.LBE295:
 1275              	.LBE303:
 1276              	.LBB304:
 1277              	.LBB289:
 1278              		.loc 1 257 13 view .LVU419
 1279 0160 84ED115A 		vstr.32	s10, [r4, #68]
 1280              		.loc 1 258 9 is_stmt 1 view .LVU420
 1281              		.loc 1 258 13 is_stmt 0 view .LVU421
 1282 0164 84ED127A 		vstr.32	s14, [r4, #72]
 1283              		.loc 1 259 9 is_stmt 1 view .LVU422
 1284              	.LVL79:
 1285              		.loc 1 259 9 is_stmt 0 view .LVU423
 1286              	.LBE289:
 1287              	.LBE304:
 1288              		.loc 5 93 9 is_stmt 1 view .LVU424
 1289              	.LBB305:
 1290              	.LBI291:
 1291              		.loc 1 367 11 view .LVU425
 1292              	.LBB296:
 1293              		.loc 1 368 7 view .LVU426
 1294              		.loc 1 371 11 is_stmt 0 view .LVU427
 1295 0168 C4ED146A 		vstr.32	s13, [r4, #80]
 1296              		.loc 1 372 11 view .LVU428
 1297 016c C4ED157A 		vstr.32	s15, [r4, #84]
 1298              	.LBE296:
 1299              	.LBE305:
 1300              		.loc 5 95 61 view .LVU429
 1301 0170 94ED580A 		vldr.32	s0, [r4, #352]
 1302              	.LBB306:
 1303              	.LBB297:
 1304              		.loc 1 368 13 view .LVU430
 1305 0174 B0EE46CA 		vmov.f32	s24, s12
 1306              	.LVL80:
 1307              		.loc 1 369 7 is_stmt 1 view .LVU431
 1308              		.loc 1 370 7 view .LVU432
 1309              		.loc 1 371 7 view .LVU433
 1310              		.loc 1 372 7 view .LVU434
 1311              		.loc 1 373 7 view .LVU435
ARM GAS  /tmp/cctzcNd8.s 			page 24


 1312              		.loc 1 373 7 is_stmt 0 view .LVU436
 1313              	.LBE297:
 1314              	.LBE306:
 1315              		.loc 5 95 9 is_stmt 1 view .LVU437
 1316              		.loc 5 95 61 is_stmt 0 view .LVU438
 1317 0178 FFF7FEFF 		bl	_ZN7genAlea8getValueEf
 1318              	.LVL81:
 1319              		.loc 5 95 61 view .LVU439
 1320 017c D4ED007A 		vldr.32	s15, [r4]
 1321 0180 88EEA7DA 		vdiv.f32	s26, s17, s15
 1322              	.LVL82:
 1323              	.LBB307:
 1324              	.LBI307:
 1325              		.loc 1 89 13 is_stmt 1 view .LVU440
 1326              	.LBB308:
 1327              		.loc 1 90 9 view .LVU441
 1328              		.loc 1 90 9 is_stmt 0 view .LVU442
 1329              	.LBE308:
 1330              	.LBE307:
 1331              		.loc 5 102 32 view .LVU443
 1332 0184 7AEEA99A 		vadd.f32	s19, s21, s19
 1333              	.LVL83:
 1334              	.LBB310:
 1335              	.LBB309:
 1336              		.loc 1 90 21 view .LVU444
 1337 0188 20EE0D0A 		vmul.f32	s0, s0, s26
 1338              	.LBE309:
 1339              	.LBE310:
 1340              		.loc 5 102 41 view .LVU445
 1341 018c 79EE8C9A 		vadd.f32	s19, s19, s24
 1342              		.loc 5 95 32 view .LVU446
 1343 0190 20EE090A 		vmul.f32	s0, s0, s18
 1344 0194 FFF7FEFF 		bl	tanf
 1345              	.LVL84:
 1346 0198 D4ED2B7A 		vldr.32	s15, [r4, #172]
 1347              	.LVL85:
 1348              	.LBB311:
 1349              	.LBI311:
 1350              		.loc 1 250 12 is_stmt 1 view .LVU447
 1351              	.LBB312:
 1352              		.loc 1 253 9 view .LVU448
 1353              		.loc 1 256 13 is_stmt 0 view .LVU449
 1354 019c 84ED17AA 		vstr.32	s20, [r4, #92]
 1355              		.loc 1 253 29 view .LVU450
 1356 01a0 60EE275A 		vmul.f32	s11, s0, s15
 1357              	.LVL86:
 1358              		.loc 1 254 9 is_stmt 1 view .LVU451
 1359              		.loc 1 254 44 is_stmt 0 view .LVU452
 1360 01a4 B0EE407A 		vmov.f32	s14, s0
 1361 01a8 A0EE257A 		vfma.f32	s14, s0, s11
 1362              		.loc 1 254 48 view .LVU453
 1363 01ac 37EE877A 		vadd.f32	s14, s15, s14
 1364              		.loc 1 254 21 view .LVU454
 1365 01b0 C8EE876A 		vdiv.f32	s13, s17, s14
 1366              	.LVL87:
 1367              		.loc 1 255 9 is_stmt 1 view .LVU455
 1368              		.loc 1 258 26 is_stmt 0 view .LVU456
ARM GAS  /tmp/cctzcNd8.s 			page 25


 1369 01b4 B0EE677A 		vmov.f32	s14, s15
 1370              		.loc 1 255 17 view .LVU457
 1371 01b8 20EE266A 		vmul.f32	s12, s0, s13
 1372              		.loc 1 258 26 view .LVU458
 1373 01bc 90EE257A 		vfnms.f32	s14, s0, s11
 1374              		.loc 1 259 20 view .LVU459
 1375 01c0 90EE250A 		vfnms.f32	s0, s0, s11
 1376              	.LVL88:
 1377              		.loc 1 258 31 view .LVU460
 1378 01c4 26EE877A 		vmul.f32	s14, s13, s14
 1379              		.loc 1 259 24 view .LVU461
 1380 01c8 77EE807A 		vadd.f32	s15, s15, s0
 1381              	.LVL89:
 1382              		.loc 1 257 15 view .LVU462
 1383 01cc B1EE465A 		vneg.f32	s10, s12
 1384              		.loc 1 259 29 view .LVU463
 1385 01d0 67EEA67A 		vmul.f32	s15, s15, s13
 1386              	.LBE312:
 1387              	.LBE311:
 1388              	.LBB318:
 1389              	.LBB319:
 1390              		.loc 1 368 13 view .LVU464
 1391 01d4 D4ED1B6A 		vldr.32	s13, [r4, #108]
 1392              	.LVL90:
 1393              		.loc 1 368 13 view .LVU465
 1394              	.LBE319:
 1395              	.LBE318:
 1396              	.LBB326:
 1397              	.LBB313:
 1398              		.loc 1 259 13 view .LVU466
 1399 01d8 C4ED1A7A 		vstr.32	s15, [r4, #104]
 1400              	.LBE313:
 1401              	.LBE326:
 1402              	.LBB327:
 1403              	.LBB320:
 1404              		.loc 1 368 13 view .LVU467
 1405 01dc E6EE086A 		vfma.f32	s13, s12, s16
 1406              	.LBE320:
 1407              	.LBE327:
 1408              	.LBB328:
 1409              	.LBB314:
 1410              		.loc 1 255 13 view .LVU468
 1411 01e0 84ED166A 		vstr.32	s12, [r4, #88]
 1412              		.loc 1 256 9 is_stmt 1 view .LVU469
 1413              		.loc 1 257 9 view .LVU470
 1414              	.LBE314:
 1415              	.LBE328:
 1416              	.LBB329:
 1417              	.LBB321:
 1418              		.loc 1 372 11 is_stmt 0 view .LVU471
 1419 01e4 67EEE67A 		vnmul.f32	s15, s15, s13
 1420              		.loc 1 369 30 view .LVU472
 1421 01e8 94ED1C6A 		vldr.32	s12, [r4, #112]
 1422              	.LBE321:
 1423              	.LBE329:
 1424              		.loc 5 99 26 view .LVU473
 1425 01ec DFED5B5A 		vldr.32	s11, .L21+12
ARM GAS  /tmp/cctzcNd8.s 			page 26


 1426              	.LBB330:
 1427              	.LBB331:
 1428              		.loc 1 90 21 view .LVU474
 1429 01f0 94ED570A 		vldr.32	s0, [r4, #348]
 1430              	.LBE331:
 1431              	.LBE330:
 1432              	.LBB334:
 1433              	.LBB315:
 1434              		.loc 1 257 13 view .LVU475
 1435 01f4 84ED185A 		vstr.32	s10, [r4, #96]
 1436              		.loc 1 258 9 is_stmt 1 view .LVU476
 1437              	.LBE315:
 1438              	.LBE334:
 1439              	.LBB335:
 1440              	.LBB322:
 1441              		.loc 1 372 11 is_stmt 0 view .LVU477
 1442 01f8 E5EE087A 		vfma.f32	s15, s10, s16
 1443              		.loc 1 369 30 view .LVU478
 1444 01fc A8EE0A6A 		vfma.f32	s12, s16, s20
 1445              	.LBE322:
 1446              	.LBE335:
 1447              	.LBB336:
 1448              	.LBB316:
 1449              		.loc 1 258 31 view .LVU479
 1450 0200 37EE077A 		vadd.f32	s14, s14, s14
 1451              	.LBE316:
 1452              	.LBE336:
 1453              	.LBB337:
 1454              	.LBB323:
 1455              		.loc 1 372 11 view .LVU480
 1456 0204 C4ED1C7A 		vstr.32	s15, [r4, #112]
 1457              	.LBE323:
 1458              	.LBE337:
 1459              		.loc 5 98 24 view .LVU481
 1460 0208 D4ED597A 		vldr.32	s15, [r4, #356]
 1461              	.LBB338:
 1462              	.LBB317:
 1463              		.loc 1 258 13 view .LVU482
 1464 020c 84ED197A 		vstr.32	s14, [r4, #100]
 1465              		.loc 1 259 9 is_stmt 1 view .LVU483
 1466              	.LVL91:
 1467              		.loc 1 259 9 is_stmt 0 view .LVU484
 1468              	.LBE317:
 1469              	.LBE338:
 1470              		.loc 5 96 9 is_stmt 1 view .LVU485
 1471              	.LBB339:
 1472              	.LBI318:
 1473              		.loc 1 367 11 view .LVU486
 1474              	.LBB324:
 1475              		.loc 1 368 7 view .LVU487
 1476              		.loc 1 369 7 view .LVU488
 1477              		.loc 1 370 7 view .LVU489
 1478              		.loc 1 371 7 view .LVU490
 1479              		.loc 1 371 11 is_stmt 0 view .LVU491
 1480 0210 A6EEC76A 		vfms.f32	s12, s13, s14
 1481              	.LBE324:
 1482              	.LBE339:
ARM GAS  /tmp/cctzcNd8.s 			page 27


 1483              		.loc 5 99 26 view .LVU492
 1484 0214 67EEA5CA 		vmul.f32	s25, s15, s11
 1485              		.loc 5 98 23 view .LVU493
 1486 0218 67EEABBA 		vmul.f32	s23, s15, s23
 1487              		.loc 5 100 27 view .LVU494
 1488 021c 78EEE77A 		vsub.f32	s15, s17, s15
 1489              	.LBB340:
 1490              	.LBB332:
 1491              		.loc 1 90 21 view .LVU495
 1492 0220 2DEE000A 		vmul.f32	s0, s26, s0
 1493              	.LBE332:
 1494              	.LBE340:
 1495              		.loc 5 100 22 view .LVU496
 1496 0224 67EEADDA 		vmul.f32	s27, s15, s27
 1497              		.loc 5 102 15 view .LVU497
 1498 0228 DFED4D7A 		vldr.32	s15, .L21+16
 1499              	.LBB341:
 1500              	.LBB325:
 1501              		.loc 1 371 11 view .LVU498
 1502 022c 84ED1B6A 		vstr.32	s12, [r4, #108]
 1503              		.loc 1 372 7 is_stmt 1 view .LVU499
 1504              		.loc 1 373 7 view .LVU500
 1505              	.LVL92:
 1506              		.loc 1 373 7 is_stmt 0 view .LVU501
 1507              	.LBE325:
 1508              	.LBE341:
 1509              		.loc 5 98 9 is_stmt 1 view .LVU502
 1510              		.loc 5 104 38 is_stmt 0 view .LVU503
 1511 0230 20EE090A 		vmul.f32	s0, s0, s18
 1512              		.loc 5 98 17 view .LVU504
 1513 0234 C4ED5CBA 		vstr.32	s23, [r4, #368]
 1514              		.loc 5 99 9 is_stmt 1 view .LVU505
 1515              		.loc 5 99 20 is_stmt 0 view .LVU506
 1516 0238 C4ED5BCA 		vstr.32	s25, [r4, #364]
 1517              		.loc 5 100 9 is_stmt 1 view .LVU507
 1518              		.loc 5 100 16 is_stmt 0 view .LVU508
 1519 023c C4ED5ADA 		vstr.32	s27, [r4, #360]
 1520              		.loc 5 102 9 is_stmt 1 view .LVU509
 1521              		.loc 5 102 15 is_stmt 0 view .LVU510
 1522 0240 E6EEA79A 		vfma.f32	s19, s13, s15
 1523              	.LVL93:
 1524              		.loc 5 104 9 is_stmt 1 view .LVU511
 1525              	.LBB342:
 1526              	.LBI330:
 1527              		.loc 1 89 13 view .LVU512
 1528              	.LBB333:
 1529              		.loc 1 90 9 view .LVU513
 1530              		.loc 1 90 9 is_stmt 0 view .LVU514
 1531              	.LBE333:
 1532              	.LBE342:
 1533              		.loc 5 104 38 view .LVU515
 1534 0244 FFF7FEFF 		bl	tanf
 1535              	.LVL94:
 1536              		.loc 5 104 38 view .LVU516
 1537 0248 D4ED566A 		vldr.32	s13, [r4, #344]
 1538              	.LVL95:
 1539              	.LBB343:
ARM GAS  /tmp/cctzcNd8.s 			page 28


 1540              	.LBI343:
 1541              		.loc 1 269 12 is_stmt 1 view .LVU517
 1542              	.LBB344:
 1543              		.loc 1 272 9 view .LVU518
 1544              	.LBE344:
 1545              	.LBE343:
 1546              	.LBB351:
 1547              	.LBB352:
 1548              		.loc 1 368 13 is_stmt 0 view .LVU519
 1549 024c D4ED295A 		vldr.32	s11, [r4, #164]
 1550              	.LBE352:
 1551              	.LBE351:
 1552              	.LBB359:
 1553              	.LBB345:
 1554              		.loc 1 272 29 view .LVU520
 1555 0250 20EE265A 		vmul.f32	s10, s0, s13
 1556              	.LVL96:
 1557              		.loc 1 273 9 is_stmt 1 view .LVU521
 1558              		.loc 1 273 44 is_stmt 0 view .LVU522
 1559 0254 F0EE407A 		vmov.f32	s15, s0
 1560 0258 E0EE057A 		vfma.f32	s15, s0, s10
 1561              		.loc 1 275 32 view .LVU523
 1562 025c B0EE666A 		vmov.f32	s12, s13
 1563              		.loc 1 273 48 view .LVU524
 1564 0260 76EEA77A 		vadd.f32	s15, s13, s15
 1565              		.loc 1 275 32 view .LVU525
 1566 0264 90EE056A 		vfnms.f32	s12, s0, s10
 1567              		.loc 1 273 21 view .LVU526
 1568 0268 C8EEA74A 		vdiv.f32	s9, s17, s15
 1569              	.LVL97:
 1570              		.loc 1 274 9 is_stmt 1 view .LVU527
 1571              		.loc 1 274 26 is_stmt 0 view .LVU528
 1572 026c B0EE667A 		vmov.f32	s14, s13
 1573 0270 A0EE057A 		vfma.f32	s14, s0, s10
 1574              		.loc 1 276 20 view .LVU529
 1575 0274 F0EE407A 		vmov.f32	s15, s0
 1576 0278 D0EE057A 		vfnms.f32	s15, s0, s10
 1577              		.loc 1 275 37 view .LVU530
 1578 027c 24EE866A 		vmul.f32	s12, s9, s12
 1579              		.loc 1 274 31 view .LVU531
 1580 0280 24EE877A 		vmul.f32	s14, s9, s14
 1581              		.loc 1 275 37 view .LVU532
 1582 0284 36EE066A 		vadd.f32	s12, s12, s12
 1583              	.LBE345:
 1584              	.LBE359:
 1585              	.LBB360:
 1586              	.LBB353:
 1587              		.loc 1 369 30 view .LVU533
 1588 0288 94ED2A5A 		vldr.32	s10, [r4, #168]
 1589              	.LVL98:
 1590              		.loc 1 369 30 view .LVU534
 1591              	.LBE353:
 1592              	.LBE360:
 1593              	.LBB361:
 1594              	.LBB346:
 1595              		.loc 1 274 19 view .LVU535
 1596 028c 84ED267A 		vstr.32	s14, [r4, #152]
ARM GAS  /tmp/cctzcNd8.s 			page 29


 1597              	.LBE346:
 1598              	.LBE361:
 1599              	.LBB362:
 1600              	.LBB354:
 1601              		.loc 1 368 13 view .LVU536
 1602 0290 E9EE875A 		vfma.f32	s11, s19, s14
 1603              	.LBE354:
 1604              	.LBE362:
 1605              	.LBB363:
 1606              	.LBB347:
 1607              		.loc 1 276 24 view .LVU537
 1608 0294 76EEA76A 		vadd.f32	s13, s13, s15
 1609              	.LVL99:
 1610              		.loc 1 276 24 view .LVU538
 1611              	.LBE347:
 1612              	.LBE363:
 1613              	.LBB364:
 1614              	.LBB355:
 1615              		.loc 1 369 30 view .LVU539
 1616 0298 A9EE865A 		vfma.f32	s10, s19, s12
 1617              	.LBE355:
 1618              	.LBE364:
 1619              	.LBB365:
 1620              	.LBB348:
 1621              		.loc 1 276 29 view .LVU540
 1622 029c 66EEA46A 		vmul.f32	s13, s13, s9
 1623              	.LBE348:
 1624              	.LBE365:
 1625              	.LBB366:
 1626              	.LBB356:
 1627              		.loc 1 371 11 view .LVU541
 1628 02a0 A5EEC65A 		vfms.f32	s10, s11, s12
 1629              		.loc 1 372 11 view .LVU542
 1630 02a4 66EEE57A 		vnmul.f32	s15, s13, s11
 1631              		.loc 1 371 11 view .LVU543
 1632 02a8 84ED295A 		vstr.32	s10, [r4, #164]
 1633              		.loc 1 372 11 view .LVU544
 1634 02ac E9EE877A 		vfma.f32	s15, s19, s14
 1635              	.LBE356:
 1636              	.LBE366:
 1637              	.LBB367:
 1638              	.LBB368:
 1639              	.LBB369:
 1640              	.LBB370:
 1641              	.LBB371:
 1642              		.file 6 "/workspace/nutekt-digital/inc/utils/float_math.h"
 1643              		.loc 6 331 14 view .LVU545
 1644 02b0 9FED2C5A 		vldr.32	s10, .L21+20
 1645              	.LBE371:
 1646              	.LBE370:
 1647              	.LBE369:
 1648              	.LBE368:
 1649              	.LBE367:
 1650              	.LBB436:
 1651              	.LBB357:
 1652              		.loc 1 372 11 view .LVU546
 1653 02b4 C4ED2A7A 		vstr.32	s15, [r4, #168]
ARM GAS  /tmp/cctzcNd8.s 			page 30


 1654              	.LBE357:
 1655              	.LBE436:
 1656              	.LBB437:
 1657              	.LBB427:
 1658              	.LBB386:
 1659              	.LBB382:
 1660              	.LBB378:
 1661              		.loc 6 331 14 view .LVU547
 1662 02b8 78EE457A 		vsub.f32	s15, s16, s10
 1663              	.LBE378:
 1664              	.LBE382:
 1665              	.LBE386:
 1666              	.LBE427:
 1667              	.LBE437:
 1668              		.loc 5 107 44 view .LVU548
 1669 02bc 6CEEA55A 		vmul.f32	s11, s25, s11
 1670              	.LBB438:
 1671              	.LBB428:
 1672              	.LBB387:
 1673              	.LBB383:
 1674              	.LBB379:
 1675              	.LBB372:
 1676              	.LBB373:
 1677              		.loc 6 193 19 view .LVU549
 1678 02c0 F4EECA7A 		vcmpe.f32	s15, s20
 1679 02c4 F1EE10FA 		vmrs	APSR_nzcv, FPSCR
 1680              	.LBE373:
 1681              	.LBE372:
 1682              	.LBE379:
 1683              	.LBE383:
 1684              	.LBE387:
 1685              	.LBE428:
 1686              	.LBE438:
 1687              	.LBB439:
 1688              	.LBB349:
 1689              		.loc 1 274 13 view .LVU550
 1690 02c8 84ED247A 		vstr.32	s14, [r4, #144]
 1691              		.loc 1 275 9 is_stmt 1 view .LVU551
 1692              	.LBE349:
 1693              	.LBE439:
 1694              		.loc 5 107 31 is_stmt 0 view .LVU552
 1695 02cc EDEEA95A 		vfma.f32	s11, s27, s19
 1696              	.LBB440:
 1697              	.LBB350:
 1698              		.loc 1 275 19 view .LVU553
 1699 02d0 84ED276A 		vstr.32	s12, [r4, #156]
 1700              		.loc 1 275 13 view .LVU554
 1701 02d4 84ED256A 		vstr.32	s12, [r4, #148]
 1702              		.loc 1 276 9 is_stmt 1 view .LVU555
 1703              		.loc 1 276 13 is_stmt 0 view .LVU556
 1704 02d8 C4ED286A 		vstr.32	s13, [r4, #160]
 1705              	.LVL100:
 1706              		.loc 1 276 13 view .LVU557
 1707              	.LBE350:
 1708              	.LBE440:
 1709              		.loc 5 105 9 is_stmt 1 view .LVU558
 1710              	.LBB441:
ARM GAS  /tmp/cctzcNd8.s 			page 31


 1711              	.LBI351:
 1712              		.loc 1 367 11 view .LVU559
 1713              	.LBB358:
 1714              		.loc 1 368 7 view .LVU560
 1715              		.loc 1 369 7 view .LVU561
 1716              		.loc 1 370 7 view .LVU562
 1717              		.loc 1 371 7 view .LVU563
 1718              		.loc 1 372 7 view .LVU564
 1719              		.loc 1 373 7 view .LVU565
 1720              		.loc 1 373 7 is_stmt 0 view .LVU566
 1721              	.LBE358:
 1722              	.LBE441:
 1723              		.loc 5 107 9 is_stmt 1 view .LVU567
 1724              	.LBB442:
 1725              	.LBI367:
 1726              		.loc 5 71 11 view .LVU568
 1727              	.LBB429:
 1728              		.loc 5 73 9 view .LVU569
 1729              		.loc 5 74 9 view .LVU570
 1730              	.LBB388:
 1731              	.LBI369:
 1732              		.loc 6 389 7 view .LVU571
 1733              	.LBE388:
 1734              	.LBE429:
 1735              	.LBE442:
 1736              		.loc 6 390 3 view .LVU572
 1737              	.LBB443:
 1738              	.LBB430:
 1739              	.LBB389:
 1740              	.LBB384:
 1741              	.LBI370:
 1742              		.loc 6 329 7 view .LVU573
 1743              	.LBB380:
 1744              		.loc 6 331 3 view .LVU574
 1745              	.LBB376:
 1746              	.LBI372:
 1747              		.loc 6 192 7 view .LVU575
 1748              	.LBB374:
 1749              		.loc 6 193 3 view .LVU576
 1750 02dc B0EE4A7A 		vmov.f32	s14, s20
 1751              		.loc 6 193 19 is_stmt 0 view .LVU577
 1752 02e0 33DA     		bge	.L20
 1753              	.LVL101:
 1754              		.loc 6 193 19 view .LVU578
 1755              	.LBE374:
 1756              	.LBE376:
 1757              	.LBE380:
 1758              	.LBE384:
 1759              	.LBE389:
 1760              		.loc 5 75 9 is_stmt 1 view .LVU579
 1761              	.LBB390:
 1762              	.LBI390:
 1763              		.loc 6 395 7 view .LVU580
 1764              	.LBE390:
 1765              	.LBE430:
 1766              	.LBE443:
 1767              		.loc 6 396 3 view .LVU581
ARM GAS  /tmp/cctzcNd8.s 			page 32


 1768              	.LBB444:
 1769              	.LBB431:
 1770              	.LBB397:
 1771              	.LBB391:
 1772              	.LBI391:
 1773              		.loc 6 323 7 view .LVU582
 1774              	.LBB392:
 1775              		.loc 6 325 3 view .LVU583
 1776              	.LBB393:
 1777              	.LBI393:
 1778              		.loc 6 192 7 view .LVU584
 1779              	.LBB394:
 1780              		.loc 6 193 3 view .LVU585
 1781              	.LBE394:
 1782              	.LBE393:
 1783              		.loc 6 325 14 is_stmt 0 view .LVU586
 1784 02e2 78EE057A 		vadd.f32	s15, s16, s10
 1785              	.LVL102:
 1786              	.LBB396:
 1787              	.LBB395:
 1788              		.loc 6 193 19 view .LVU587
 1789 02e6 F4EECA7A 		vcmpe.f32	s15, s20
 1790 02ea DFED1F7A 		vldr.32	s15, .L21+24
 1791              	.LVL103:
 1792              		.loc 6 193 19 view .LVU588
 1793 02ee F1EE10FA 		vmrs	APSR_nzcv, FPSCR
 1794 02f2 B8BF     		it	lt
 1795 02f4 B0EE678A 		vmovlt.f32	s16, s15
 1796              	.LVL104:
 1797              	.L19:
 1798              		.loc 6 193 19 view .LVU589
 1799              	.LBE395:
 1800              	.LBE396:
 1801              	.LBE392:
 1802              	.LBE391:
 1803              	.LBE397:
 1804              		.loc 5 76 9 is_stmt 1 view .LVU590
 1805              		.loc 5 76 16 is_stmt 0 view .LVU591
 1806 02f8 88EE054A 		vdiv.f32	s8, s16, s10
 1807              	.LVL105:
 1808              		.loc 5 78 9 is_stmt 1 view .LVU592
 1809              		.loc 5 79 9 view .LVU593
 1810              		.loc 5 79 9 is_stmt 0 view .LVU594
 1811              	.LBE431:
 1812              	.LBE444:
 1813              		.loc 1 90 9 is_stmt 1 view .LVU595
 1814              	.LBB445:
 1815              	.LBB432:
 1816              	.LBB398:
 1817              	.LBI398:
 1818              		.loc 1 250 12 view .LVU596
 1819              	.LBB399:
 1820              		.loc 1 253 9 view .LVU597
 1821              		.loc 1 254 9 view .LVU598
 1822              		.loc 1 255 9 view .LVU599
 1823              		.loc 1 255 17 is_stmt 0 view .LVU600
 1824 02fc 60EE247A 		vmul.f32	s15, s0, s9
ARM GAS  /tmp/cctzcNd8.s 			page 33


 1825              	.LBE399:
 1826              	.LBE398:
 1827              	.LBB405:
 1828              	.LBB406:
 1829              		.loc 1 368 13 view .LVU601
 1830 0300 94ED225A 		vldr.32	s10, [r4, #136]
 1831              	.LBE406:
 1832              	.LBE405:
 1833              	.LBB414:
 1834              	.LBB400:
 1835              		.loc 1 255 13 view .LVU602
 1836 0304 C4ED1D7A 		vstr.32	s15, [r4, #116]
 1837              		.loc 1 256 9 is_stmt 1 view .LVU603
 1838              	.LBE400:
 1839              	.LBE414:
 1840              	.LBB415:
 1841              	.LBB407:
 1842              		.loc 1 368 13 is_stmt 0 view .LVU604
 1843 0308 A4EE275A 		vfma.f32	s10, s8, s15
 1844              	.LBE407:
 1845              	.LBE415:
 1846              	.LBB416:
 1847              	.LBB401:
 1848              		.loc 1 257 15 view .LVU605
 1849 030c F1EE674A 		vneg.f32	s9, s15
 1850              	.LVL106:
 1851              		.loc 1 257 15 view .LVU606
 1852              	.LBE401:
 1853              	.LBE416:
 1854              	.LBB417:
 1855              	.LBB408:
 1856              		.loc 1 369 30 view .LVU607
 1857 0310 D4ED237A 		vldr.32	s15, [r4, #140]
 1858              	.LBE408:
 1859              	.LBE417:
 1860              	.LBB418:
 1861              	.LBB402:
 1862              		.loc 1 256 13 view .LVU608
 1863 0314 84ED1E7A 		vstr.32	s14, [r4, #120]
 1864              		.loc 1 257 9 is_stmt 1 view .LVU609
 1865              	.LBE402:
 1866              	.LBE418:
 1867              	.LBB419:
 1868              	.LBB409:
 1869              		.loc 1 369 30 is_stmt 0 view .LVU610
 1870 0318 E4EE077A 		vfma.f32	s15, s8, s14
 1871              	.LBE409:
 1872              	.LBE419:
 1873              	.LBE432:
 1874              	.LBE445:
 1875              		.loc 5 108 5 view .LVU611
 1876 031c EBEE855A 		vfma.f32	s11, s23, s10
 1877 0320 BDEC0C8B 		vldm	sp!, {d8-d13}
 1878              		.cfi_remember_state
 1879              		.cfi_restore 90
 1880              		.cfi_restore 91
 1881              		.cfi_restore 88
ARM GAS  /tmp/cctzcNd8.s 			page 34


 1882              		.cfi_restore 89
 1883              		.cfi_restore 86
 1884              		.cfi_restore 87
 1885              		.cfi_restore 84
 1886              		.cfi_restore 85
 1887              		.cfi_restore 82
 1888              		.cfi_restore 83
 1889              		.cfi_restore 80
 1890              		.cfi_restore 81
 1891              		.cfi_def_cfa_offset 8
 1892              	.LVL107:
 1893              	.LBB446:
 1894              	.LBB433:
 1895              	.LBB420:
 1896              	.LBB410:
 1897              		.loc 1 371 11 view .LVU612
 1898 0324 E6EE457A 		vfms.f32	s15, s12, s10
 1899              	.LBE410:
 1900              	.LBE420:
 1901              	.LBE433:
 1902              	.LBE446:
 1903              		.loc 5 108 5 view .LVU613
 1904 0328 B0EE650A 		vmov.f32	s0, s11
 1905              	.LVL108:
 1906              	.LBB447:
 1907              	.LBB434:
 1908              	.LBB421:
 1909              	.LBB411:
 1910              		.loc 1 371 11 view .LVU614
 1911 032c C4ED227A 		vstr.32	s15, [r4, #136]
 1912              		.loc 1 372 11 view .LVU615
 1913 0330 65EE667A 		vnmul.f32	s15, s10, s13
 1914              	.LBE411:
 1915              	.LBE421:
 1916              	.LBB422:
 1917              	.LBB403:
 1918              		.loc 1 257 13 view .LVU616
 1919 0334 C4ED1F4A 		vstr.32	s9, [r4, #124]
 1920              		.loc 1 258 9 is_stmt 1 view .LVU617
 1921              	.LBE403:
 1922              	.LBE422:
 1923              	.LBB423:
 1924              	.LBB412:
 1925              		.loc 1 372 11 is_stmt 0 view .LVU618
 1926 0338 E4EE247A 		vfma.f32	s15, s8, s9
 1927              	.LBE412:
 1928              	.LBE423:
 1929              	.LBB424:
 1930              	.LBB404:
 1931              		.loc 1 258 13 view .LVU619
 1932 033c 84ED206A 		vstr.32	s12, [r4, #128]
 1933              		.loc 1 259 9 is_stmt 1 view .LVU620
 1934              		.loc 1 259 13 is_stmt 0 view .LVU621
 1935 0340 C4ED216A 		vstr.32	s13, [r4, #132]
 1936              	.LVL109:
 1937              		.loc 1 259 13 view .LVU622
 1938              	.LBE404:
ARM GAS  /tmp/cctzcNd8.s 			page 35


 1939              	.LBE424:
 1940              		.loc 5 81 9 is_stmt 1 view .LVU623
 1941              	.LBB425:
 1942              	.LBI405:
 1943              		.loc 1 367 11 view .LVU624
 1944              	.LBB413:
 1945              		.loc 1 368 7 view .LVU625
 1946              		.loc 1 369 7 view .LVU626
 1947              		.loc 1 370 7 view .LVU627
 1948              		.loc 1 371 7 view .LVU628
 1949              		.loc 1 372 7 view .LVU629
 1950              		.loc 1 372 11 is_stmt 0 view .LVU630
 1951 0344 C4ED237A 		vstr.32	s15, [r4, #140]
 1952              		.loc 1 373 7 is_stmt 1 view .LVU631
 1953              	.LVL110:
 1954              		.loc 1 373 7 is_stmt 0 view .LVU632
 1955              	.LBE413:
 1956              	.LBE425:
 1957              	.LBE434:
 1958              	.LBE447:
 1959              		.loc 5 108 5 view .LVU633
 1960 0348 10BD     		pop	{r4, pc}
 1961              	.LVL111:
 1962              	.L20:
 1963              		.cfi_restore_state
 1964              	.LBB448:
 1965              	.LBB435:
 1966              	.LBB426:
 1967              	.LBB385:
 1968              	.LBB381:
 1969              	.LBB377:
 1970              	.LBB375:
 1971              		.loc 6 193 19 view .LVU634
 1972 034a B0EE458A 		vmov.f32	s16, s10
 1973              	.LVL112:
 1974              		.loc 6 193 19 view .LVU635
 1975 034e D3E7     		b	.L19
 1976              	.L22:
 1977              		.align	2
 1978              	.L21:
 1979 0350 DB0F4940 		.word	1078530011
 1980 0354 00000000 		.word	0
 1981 0358 9A99193F 		.word	1058642330
 1982 035c CDCC4C3E 		.word	1045220557
 1983 0360 CDCC4C3F 		.word	1061997773
 1984 0364 9A99993E 		.word	1050253722
 1985 0368 9A9999BE 		.word	3197737370
 1986              	.LBE375:
 1987              	.LBE377:
 1988              	.LBE381:
 1989              	.LBE385:
 1990              	.LBE426:
 1991              	.LBE435:
 1992              	.LBE448:
 1993              		.cfi_endproc
 1994              	.LFE519:
 1995              		.size	_ZN4Wind7processEv, .-_ZN4Wind7processEv
ARM GAS  /tmp/cctzcNd8.s 			page 36


 1996              		.text
 1997              		.align	1
 1998              		.global	_hook_init
 1999              		.syntax unified
 2000              		.thumb
 2001              		.thumb_func
 2002              		.fpu fpv4-sp-d16
 2003              		.type	_hook_init, %function
 2004              	_hook_init:
 2005              	.LVL113:
 2006              	.LFB526:
 2007              		.file 7 "Wind.cpp"
 2008              		.loc 7 21 1 is_stmt 1 view -0
 2009              		.cfi_startproc
 2010              		@ args = 0, pretend = 0, frame = 0
 2011              		@ frame_needed = 0, uses_anonymous_args = 0
 2012              		.loc 7 22 3 view .LVU637
 2013              		.loc 7 23 3 view .LVU638
 2014              		.loc 7 24 3 view .LVU639
 2015              		.loc 7 21 1 is_stmt 0 view .LVU640
 2016 0000 10B5     		push	{r4, lr}
 2017              		.cfi_def_cfa_offset 8
 2018              		.cfi_offset 4, -8
 2019              		.cfi_offset 14, -4
 2020              		.loc 7 24 15 view .LVU641
 2021 0002 0A4C     		ldr	r4, .L24
 2022 0004 2046     		mov	r0, r4
 2023              	.LVL114:
 2024              		.loc 7 24 15 view .LVU642
 2025 0006 FFF7FEFF 		bl	_ZN4Wind5startEv
 2026              	.LVL115:
 2027              		.loc 7 25 3 is_stmt 1 view .LVU643
 2028              	.LBB449:
 2029              	.LBB450:
 2030              		.loc 5 61 16 is_stmt 0 view .LVU644
 2031 000a 4FF07E51 		mov	r1, #1065353216
 2032              	.LBE450:
 2033              	.LBE449:
 2034              		.loc 7 25 18 view .LVU645
 2035 000e D4F87421 		ldr	r2, [r4, #372]	@ float
 2036 0012 D4F87831 		ldr	r3, [r4, #376]	@ float
 2037              	.LVL116:
 2038              	.LBB452:
 2039              	.LBI449:
 2040              		.loc 5 58 10 is_stmt 1 view .LVU646
 2041              	.LBB451:
 2042              		.loc 5 61 9 view .LVU647
 2043              		.loc 5 61 16 is_stmt 0 view .LVU648
 2044 0016 C4F85811 		str	r1, [r4, #344]	@ float
 2045              		.loc 5 62 9 is_stmt 1 view .LVU649
 2046              		.loc 5 62 24 is_stmt 0 view .LVU650
 2047 001a 0549     		ldr	r1, .L24+4
 2048 001c C4F85C11 		str	r1, [r4, #348]	@ float
 2049              		.loc 5 65 9 is_stmt 1 view .LVU651
 2050              		.loc 5 65 17 is_stmt 0 view .LVU652
 2051 0020 C4F86021 		str	r2, [r4, #352]	@ float
 2052              		.loc 5 66 9 is_stmt 1 view .LVU653
ARM GAS  /tmp/cctzcNd8.s 			page 37


 2053              		.loc 5 66 22 is_stmt 0 view .LVU654
 2054 0024 C4F86431 		str	r3, [r4, #356]	@ float
 2055              	.LVL117:
 2056              		.loc 5 66 22 view .LVU655
 2057              	.LBE451:
 2058              	.LBE452:
 2059              		.loc 7 26 1 view .LVU656
 2060 0028 10BD     		pop	{r4, pc}
 2061              	.L25:
 2062 002a 00BF     		.align	2
 2063              	.L24:
 2064 002c 00000000 		.word	.LANCHOR0
 2065 0030 00005C43 		.word	1130102784
 2066              		.cfi_endproc
 2067              	.LFE526:
 2068              		.size	_hook_init, .-_hook_init
 2069              		.align	1
 2070              		.global	_hook_cycle
 2071              		.syntax unified
 2072              		.thumb
 2073              		.thumb_func
 2074              		.fpu fpv4-sp-d16
 2075              		.type	_hook_cycle, %function
 2076              	_hook_cycle:
 2077              	.LVL118:
 2078              	.LFB527:
 2079              		.loc 7 31 1 is_stmt 1 view -0
 2080              		.cfi_startproc
 2081              		@ args = 0, pretend = 0, frame = 0
 2082              		@ frame_needed = 0, uses_anonymous_args = 0
 2083              		.loc 7 33 3 view .LVU658
 2084              	.LBB453:
 2085              	.LBI453:
 2086              		.loc 3 114 23 view .LVU659
 2087              	.LBB454:
 2088              		.loc 3 115 5 view .LVU660
 2089              		.loc 3 115 5 is_stmt 0 view .LVU661
 2090              	.LBE454:
 2091              	.LBE453:
 2092              		.file 8 "/workspace/nutekt-digital/inc/utils/int_math.h"
 2093              		.loc 8 85 3 is_stmt 1 view .LVU662
 2094              		.loc 7 33 41 is_stmt 0 view .LVU663
 2095 0034 8388     		ldrh	r3, [r0, #4]
 2096              	.LBB458:
 2097              	.LBB455:
 2098              		.loc 3 115 65 view .LVU664
 2099 0036 1748     		ldr	r0, .L29
 2100              	.LVL119:
 2101              		.loc 3 115 65 view .LVU665
 2102              	.LBE455:
 2103              	.LBE458:
 2104              		.loc 7 31 1 view .LVU666
 2105 0038 70B5     		push	{r4, r5, r6, lr}
 2106              		.cfi_def_cfa_offset 16
 2107              		.cfi_offset 4, -16
 2108              		.cfi_offset 5, -12
 2109              		.cfi_offset 6, -8
ARM GAS  /tmp/cctzcNd8.s 			page 38


 2110              		.cfi_offset 14, -4
 2111              		.loc 7 33 47 view .LVU667
 2112 003a 1B12     		asrs	r3, r3, #8
 2113              	.LBB459:
 2114              	.LBB456:
 2115              		.loc 3 115 65 view .LVU668
 2116 003c 972B     		cmp	r3, #151
 2117 003e 28BF     		it	cs
 2118 0040 9723     		movcs	r3, #151
 2119 0042 00EB8303 		add	r3, r0, r3, lsl #2
 2120              	.LBE456:
 2121              	.LBE459:
 2122              		.loc 7 34 18 view .LVU669
 2123 0046 1448     		ldr	r0, .L29+4
 2124              	.LBB460:
 2125              	.LBB457:
 2126              		.loc 3 115 65 view .LVU670
 2127 0048 1D68     		ldr	r5, [r3]	@ float
 2128              	.LVL120:
 2129              		.loc 3 115 65 view .LVU671
 2130              	.LBE457:
 2131              	.LBE460:
 2132              		.loc 7 34 3 is_stmt 1 view .LVU672
 2133              		.loc 7 34 18 is_stmt 0 view .LVU673
 2134 004a D0F87441 		ldr	r4, [r0, #372]	@ float
 2135              	.LBB461:
 2136              	.LBB462:
 2137              		.loc 5 61 16 view .LVU674
 2138 004e 134E     		ldr	r6, .L29+8
 2139              	.LBE462:
 2140              	.LBE461:
 2141              		.loc 7 34 18 view .LVU675
 2142 0050 D0F87831 		ldr	r3, [r0, #376]	@ float
 2143              	.LVL121:
 2144              	.LBB465:
 2145              	.LBI461:
 2146              		.loc 5 58 10 is_stmt 1 view .LVU676
 2147              	.LBB463:
 2148              		.loc 5 61 9 view .LVU677
 2149              	.LBE463:
 2150              	.LBE465:
 2151              		.loc 7 31 1 is_stmt 0 view .LVU678
 2152 0054 2DED028B 		vpush.64	{d8}
 2153              		.cfi_def_cfa_offset 24
 2154              		.cfi_offset 80, -24
 2155              		.cfi_offset 81, -20
 2156              	.LBB466:
 2157              	.LBB467:
 2158              		.loc 7 39 18 view .LVU679
 2159 0058 9FED118A 		vldr.32	s16, .L29+12
 2160              	.LBE467:
 2161              	.LBE466:
 2162              	.LBB470:
 2163              	.LBB464:
 2164              		.loc 5 61 16 view .LVU680
 2165 005c C0F85861 		str	r6, [r0, #344]	@ float
 2166              		.loc 5 62 9 is_stmt 1 view .LVU681
ARM GAS  /tmp/cctzcNd8.s 			page 39


 2167              		.loc 5 62 24 is_stmt 0 view .LVU682
 2168 0060 C0F85C51 		str	r5, [r0, #348]	@ float
 2169              		.loc 5 65 9 is_stmt 1 view .LVU683
 2170              		.loc 5 65 17 is_stmt 0 view .LVU684
 2171 0064 C0F86041 		str	r4, [r0, #352]	@ float
 2172              		.loc 5 66 9 is_stmt 1 view .LVU685
 2173              		.loc 5 66 22 is_stmt 0 view .LVU686
 2174 0068 C0F86431 		str	r3, [r0, #356]	@ float
 2175              	.LVL122:
 2176              		.loc 5 66 22 view .LVU687
 2177              	.LBE464:
 2178              	.LBE470:
 2179              		.loc 7 36 3 is_stmt 1 view .LVU688
 2180              		.loc 7 36 3 is_stmt 0 view .LVU689
 2181 006c 0C46     		mov	r4, r1
 2182 006e 01EB8205 		add	r5, r1, r2, lsl #2
 2183              	.LVL123:
 2184              	.LBB471:
 2185              	.LBB468:
 2186              		.loc 7 38 34 view .LVU690
 2187 0072 0646     		mov	r6, r0
 2188              	.LVL124:
 2189              	.L28:
 2190              		.loc 7 38 34 view .LVU691
 2191              	.LBE468:
 2192              		.loc 7 36 31 is_stmt 1 discriminator 3 view .LVU692
 2193 0074 AC42     		cmp	r4, r5
 2194 0076 09D0     		beq	.L26
 2195              	.LBB469:
 2196              		.loc 7 38 5 discriminator 2 view .LVU693
 2197              		.loc 7 38 34 is_stmt 0 discriminator 2 view .LVU694
 2198 0078 3046     		mov	r0, r6
 2199 007a FFF7FEFF 		bl	_ZN4Wind7processEv
 2200              	.LVL125:
 2201              		.loc 7 39 5 is_stmt 1 discriminator 2 view .LVU695
 2202              		.loc 7 39 18 is_stmt 0 discriminator 2 view .LVU696
 2203 007e 20EE080A 		vmul.f32	s0, s0, s16
 2204              	.LVL126:
 2205              		.loc 7 39 18 discriminator 2 view .LVU697
 2206 0082 BDEEC00A 		vcvt.s32.f32	s0, s0
 2207 0086 A4EC010A 		vstmia.32	r4!, {s0}	@ int
 2208              	.LBE469:
 2209              		.loc 7 36 3 is_stmt 1 discriminator 2 view .LVU698
 2210 008a F3E7     		b	.L28
 2211              	.L26:
 2212              		.loc 7 36 3 is_stmt 0 discriminator 2 view .LVU699
 2213              	.LBE471:
 2214              		.loc 7 42 1 view .LVU700
 2215 008c BDEC028B 		vldm	sp!, {d8}
 2216              		.cfi_restore 80
 2217              		.cfi_restore 81
 2218              		.cfi_def_cfa_offset 16
 2219 0090 70BD     		pop	{r4, r5, r6, pc}
 2220              	.L30:
 2221 0092 00BF     		.align	2
 2222              	.L29:
 2223 0094 00000000 		.word	midi_to_hz_lut_f
ARM GAS  /tmp/cctzcNd8.s 			page 40


 2224 0098 00000000 		.word	.LANCHOR0
 2225 009c 0000C842 		.word	1120403456
 2226 00a0 0000004F 		.word	1325400064
 2227              		.cfi_endproc
 2228              	.LFE527:
 2229              		.size	_hook_cycle, .-_hook_cycle
 2230              		.align	1
 2231              		.global	_hook_on
 2232              		.syntax unified
 2233              		.thumb
 2234              		.thumb_func
 2235              		.fpu fpv4-sp-d16
 2236              		.type	_hook_on, %function
 2237              	_hook_on:
 2238              	.LVL127:
 2239              	.LFB528:
 2240              		.loc 7 45 1 is_stmt 1 view -0
 2241              		.cfi_startproc
 2242              		@ args = 0, pretend = 0, frame = 0
 2243              		@ frame_needed = 0, uses_anonymous_args = 0
 2244              		@ link register save eliminated.
 2245              		.loc 7 47 1 is_stmt 0 view .LVU702
 2246 00a4 7047     		bx	lr
 2247              		.cfi_endproc
 2248              	.LFE528:
 2249              		.size	_hook_on, .-_hook_on
 2250              		.align	1
 2251              		.global	_hook_off
 2252              		.syntax unified
 2253              		.thumb
 2254              		.thumb_func
 2255              		.fpu fpv4-sp-d16
 2256              		.type	_hook_off, %function
 2257              	_hook_off:
 2258              	.LFB534:
 2259              		.cfi_startproc
 2260              		@ args = 0, pretend = 0, frame = 0
 2261              		@ frame_needed = 0, uses_anonymous_args = 0
 2262              		@ link register save eliminated.
 2263 00a6 7047     		bx	lr
 2264              		.cfi_endproc
 2265              	.LFE534:
 2266              		.size	_hook_off, .-_hook_off
 2267              		.align	1
 2268              		.global	_hook_param
 2269              		.syntax unified
 2270              		.thumb
 2271              		.thumb_func
 2272              		.fpu fpv4-sp-d16
 2273              		.type	_hook_param, %function
 2274              	_hook_param:
 2275              	.LVL128:
 2276              	.LFB530:
 2277              		.loc 7 55 1 is_stmt 1 view -0
 2278              		.cfi_startproc
 2279              		@ args = 0, pretend = 0, frame = 0
 2280              		@ frame_needed = 0, uses_anonymous_args = 0
ARM GAS  /tmp/cctzcNd8.s 			page 41


 2281              		@ link register save eliminated.
 2282              		.loc 7 56 3 view .LVU704
 2283 00a8 0628     		cmp	r0, #6
 2284              		.loc 7 55 1 is_stmt 0 view .LVU705
 2285 00aa 07EE901A 		vmov	s15, r1	@ int
 2286              		.loc 7 56 3 view .LVU706
 2287 00ae 02D0     		beq	.L34
 2288 00b0 0728     		cmp	r0, #7
 2289 00b2 0AD0     		beq	.L35
 2290 00b4 7047     		bx	lr
 2291              	.L34:
 2292              		.loc 7 57 3 is_stmt 1 view .LVU707
 2293              		.loc 7 59 5 view .LVU708
 2294              		.loc 7 59 21 is_stmt 0 view .LVU709
 2295 00b6 F8EEE77A 		vcvt.f32.s32	s15, s15
 2296 00ba 9FED097A 		vldr.32	s14, .L37
 2297              		.loc 7 59 19 view .LVU710
 2298 00be 094B     		ldr	r3, .L37+4
 2299              		.loc 7 59 21 view .LVU711
 2300 00c0 67EE877A 		vmul.f32	s15, s15, s14
 2301              		.loc 7 59 19 view .LVU712
 2302 00c4 C3ED5D7A 		vstr.32	s15, [r3, #372]
 2303              		.loc 7 60 5 is_stmt 1 view .LVU713
 2304 00c8 7047     		bx	lr
 2305              	.L35:
 2306              		.loc 7 62 3 view .LVU714
 2307              		.loc 7 64 5 view .LVU715
 2308              		.loc 7 64 26 is_stmt 0 view .LVU716
 2309 00ca F8EEE77A 		vcvt.f32.s32	s15, s15
 2310 00ce 9FED047A 		vldr.32	s14, .L37
 2311              		.loc 7 64 24 view .LVU717
 2312 00d2 044B     		ldr	r3, .L37+4
 2313              		.loc 7 64 26 view .LVU718
 2314 00d4 67EE877A 		vmul.f32	s15, s15, s14
 2315              		.loc 7 64 24 view .LVU719
 2316 00d8 C3ED5E7A 		vstr.32	s15, [r3, #376]
 2317              		.loc 7 65 5 is_stmt 1 view .LVU720
 2318              		.loc 7 70 1 is_stmt 0 view .LVU721
 2319 00dc 7047     		bx	lr
 2320              	.L38:
 2321 00de 00BF     		.align	2
 2322              	.L37:
 2323 00e0 0820803A 		.word	981475336
 2324 00e4 00000000 		.word	.LANCHOR0
 2325              		.cfi_endproc
 2326              	.LFE530:
 2327              		.size	_hook_param, .-_hook_param
 2328              		.section	.text.startup,"ax",%progbits
 2329              		.align	1
 2330              		.syntax unified
 2331              		.thumb
 2332              		.thumb_func
 2333              		.fpu fpv4-sp-d16
 2334              		.type	_GLOBAL__sub_I__hook_init, %function
 2335              	_GLOBAL__sub_I__hook_init:
 2336              	.LFB532:
 2337              		.loc 7 70 1 is_stmt 1 view -0
ARM GAS  /tmp/cctzcNd8.s 			page 42


 2338              		.cfi_startproc
 2339              		@ args = 0, pretend = 0, frame = 0
 2340              		@ frame_needed = 0, uses_anonymous_args = 0
 2341              	.LVL129:
 2342              	.LBB495:
 2343              	.LBI495:
 2344              		.loc 7 70 1 view .LVU723
 2345              	.LBB496:
 2346              	.LBB497:
 2347              	.LBI497:
 2348              		.loc 5 13 8 view .LVU724
 2349              	.LBE497:
 2350              	.LBE496:
 2351              	.LBE495:
 2352              		.loc 7 70 1 is_stmt 0 view .LVU725
 2353 0000 F8B5     		push	{r3, r4, r5, r6, r7, lr}
 2354              		.cfi_def_cfa_offset 24
 2355              		.cfi_offset 3, -24
 2356              		.cfi_offset 4, -20
 2357              		.cfi_offset 5, -16
 2358              		.cfi_offset 6, -12
 2359              		.cfi_offset 7, -8
 2360              		.cfi_offset 14, -4
 2361              	.LBB566:
 2362              	.LBB565:
 2363              	.LBB564:
 2364              	.LBB498:
 2365              		.loc 5 13 8 view .LVU726
 2366 0002 4A4C     		ldr	r4, .L40
 2367 0004 4A4D     		ldr	r5, .L40+4
 2368              	.LBB499:
 2369              	.LBB500:
 2370              	.LBB501:
 2371              	.LBB502:
 2372              	.LBB503:
 2373              		.loc 4 4 8 view .LVU727
 2374 0006 4B4F     		ldr	r7, .L40+8
 2375              	.LBE503:
 2376              	.LBE502:
 2377              	.LBE501:
 2378              	.LBE500:
 2379              	.LBE499:
 2380              		.loc 5 13 8 view .LVU728
 2381 0008 2046     		mov	r0, r4
 2382              	.LBB524:
 2383              	.LBB518:
 2384              	.LBB512:
 2385              	.LBB508:
 2386              	.LBB504:
 2387              		.loc 4 4 8 view .LVU729
 2388 000a 0026     		movs	r6, #0
 2389              	.LBE504:
 2390              	.LBE508:
 2391              	.LBE512:
 2392              	.LBE518:
 2393              	.LBE524:
 2394              		.loc 5 13 8 view .LVU730
ARM GAS  /tmp/cctzcNd8.s 			page 43


 2395 000c 40F8045B 		str	r5, [r0], #4	@ float
 2396 0010 FFF7FEFF 		bl	_ZN3dsp6BiQuadC1Ev
 2397              	.LVL130:
 2398 0014 04F12000 		add	r0, r4, #32
 2399 0018 FFF7FEFF 		bl	_ZN3dsp6BiQuadC1Ev
 2400              	.LVL131:
 2401 001c 04F13C00 		add	r0, r4, #60
 2402 0020 FFF7FEFF 		bl	_ZN3dsp6BiQuadC1Ev
 2403              	.LVL132:
 2404 0024 04F15800 		add	r0, r4, #88
 2405 0028 FFF7FEFF 		bl	_ZN3dsp6BiQuadC1Ev
 2406              	.LVL133:
 2407 002c 04F17400 		add	r0, r4, #116
 2408 0030 FFF7FEFF 		bl	_ZN3dsp6BiQuadC1Ev
 2409              	.LVL134:
 2410 0034 04F19000 		add	r0, r4, #144
 2411 0038 FFF7FEFF 		bl	_ZN3dsp6BiQuadC1Ev
 2412              	.LVL135:
 2413              	.LBB525:
 2414              	.LBB519:
 2415              	.LBB513:
 2416              		.loc 2 28 40 view .LVU731
 2417 003c DFF81CC1 		ldr	ip, .L40+48
 2418              		.loc 2 29 40 view .LVU732
 2419 0040 3D49     		ldr	r1, .L40+12
 2420              	.LBE513:
 2421              	.LBE519:
 2422              	.LBE525:
 2423              		.loc 5 13 8 view .LVU733
 2424 0042 3E4B     		ldr	r3, .L40+16
 2425              	.LBB526:
 2426              	.LBB520:
 2427              	.LBB514:
 2428              		.loc 2 30 23 view .LVU734
 2429 0044 3E48     		ldr	r0, .L40+20
 2430              	.LBE514:
 2431              	.LBE520:
 2432              	.LBE526:
 2433              	.LBB527:
 2434              	.LBB528:
 2435              	.LBB529:
 2436              		.loc 2 29 40 view .LVU735
 2437 0046 DFF818E1 		ldr	lr, .L40+52
 2438              	.LBE529:
 2439              	.LBE528:
 2440              	.LBE527:
 2441              		.loc 5 13 8 view .LVU736
 2442 004a C4F8AC30 		str	r3, [r4, #172]	@ float
 2443              	.LVL136:
 2444              	.LBB540:
 2445              	.LBI499:
 2446              		.loc 2 26 5 is_stmt 1 view .LVU737
 2447              	.LBB521:
 2448              	.LBB515:
 2449              	.LBB509:
 2450              	.LBI502:
 2451              		.loc 4 4 8 view .LVU738
ARM GAS  /tmp/cctzcNd8.s 			page 44


 2452              	.LBB505:
 2453 004e 4FF07E52 		mov	r2, #1065353216
 2454 0052 0023     		movs	r3, #0
 2455              	.LBE505:
 2456              	.LBE509:
 2457              		.loc 2 28 40 is_stmt 0 view .LVU739
 2458 0054 C4F8BCC0 		str	ip, [r4, #188]	@ float
 2459              		.loc 2 28 20 view .LVU740
 2460 0058 C4F8B0C0 		str	ip, [r4, #176]	@ float
 2461              		.loc 2 29 40 view .LVU741
 2462 005c C4F8B810 		str	r1, [r4, #184]	@ float
 2463              		.loc 2 29 20 view .LVU742
 2464 0060 C4F8B410 		str	r1, [r4, #180]	@ float
 2465              		.loc 2 32 21 view .LVU743
 2466 0064 C4F8C8C0 		str	ip, [r4, #200]	@ float
 2467              		.loc 2 31 23 view .LVU744
 2468 0068 3649     		ldr	r1, .L40+24
 2469              	.LBE515:
 2470              	.LBE521:
 2471              	.LBE540:
 2472              	.LBB541:
 2473              	.LBB537:
 2474              	.LBB534:
 2475              		.loc 2 28 40 view .LVU745
 2476 006a DFF8F8C0 		ldr	ip, .L40+56
 2477              	.LBE534:
 2478              	.LBE537:
 2479              	.LBE541:
 2480              	.LBB542:
 2481              	.LBB522:
 2482              	.LBB516:
 2483              	.LBB510:
 2484              	.LBB506:
 2485              		.loc 4 4 8 view .LVU746
 2486 006e C4F8CC50 		str	r5, [r4, #204]	@ float
 2487 0072 C4F8D020 		str	r2, [r4, #208]	@ float
 2488              	.LBE506:
 2489              	.LBE510:
 2490              		.loc 2 27 5 view .LVU747
 2491 0076 C4F8E420 		str	r2, [r4, #228]	@ float
 2492              	.LBE516:
 2493              	.LBE522:
 2494              	.LBE542:
 2495              	.LBB543:
 2496              	.LBB538:
 2497              	.LBB535:
 2498              	.LBB530:
 2499              	.LBB531:
 2500              		.loc 4 4 8 view .LVU748
 2501 007a C4F80451 		str	r5, [r4, #260]	@ float
 2502 007e C4F80821 		str	r2, [r4, #264]	@ float
 2503              	.LBE531:
 2504              	.LBE530:
 2505              		.loc 2 27 5 view .LVU749
 2506 0082 C4F81C21 		str	r2, [r4, #284]	@ float
 2507              	.LBE535:
 2508              	.LBE538:
ARM GAS  /tmp/cctzcNd8.s 			page 45


 2509              	.LBE543:
 2510              	.LBB544:
 2511              	.LBB545:
 2512              	.LBB546:
 2513              	.LBB547:
 2514              	.LBB548:
 2515              		.loc 4 4 8 view .LVU750
 2516 0086 C4F83C51 		str	r5, [r4, #316]	@ float
 2517 008a C4F84021 		str	r2, [r4, #320]	@ float
 2518              	.LBE548:
 2519              	.LBE547:
 2520              	.LBE546:
 2521              	.LBE545:
 2522              	.LBE544:
 2523              	.LBB559:
 2524              	.LBB523:
 2525              	.LBB517:
 2526              	.LBB511:
 2527              	.LBB507:
 2528 008e C4F8D430 		str	r3, [r4, #212]	@ float
 2529 0092 C4F8D870 		str	r7, [r4, #216]	@ float
 2530 0096 C4F8DC30 		str	r3, [r4, #220]	@ float
 2531 009a 84F8E060 		strb	r6, [r4, #224]
 2532              	.LVL137:
 2533              		.loc 4 4 8 view .LVU751
 2534              	.LBE507:
 2535              	.LBE511:
 2536              		.loc 2 28 9 is_stmt 1 view .LVU752
 2537              		.loc 2 29 9 view .LVU753
 2538              		.loc 2 30 9 view .LVU754
 2539              		.loc 2 30 23 is_stmt 0 view .LVU755
 2540 009e C4F8C000 		str	r0, [r4, #192]	@ float
 2541              		.loc 2 31 9 is_stmt 1 view .LVU756
 2542              		.loc 2 31 23 is_stmt 0 view .LVU757
 2543 00a2 C4F8C410 		str	r1, [r4, #196]	@ float
 2544              		.loc 2 32 9 is_stmt 1 view .LVU758
 2545              	.LVL138:
 2546              		.loc 2 32 9 is_stmt 0 view .LVU759
 2547              	.LBE517:
 2548              	.LBE523:
 2549              	.LBE559:
 2550              	.LBB560:
 2551              	.LBI527:
 2552              		.loc 2 26 5 is_stmt 1 view .LVU760
 2553              	.LBB539:
 2554              	.LBB536:
 2555              	.LBB533:
 2556              	.LBI530:
 2557              		.loc 4 4 8 view .LVU761
 2558              	.LBB532:
 2559 00a6 C4F80C31 		str	r3, [r4, #268]	@ float
 2560 00aa C4F81071 		str	r7, [r4, #272]	@ float
 2561 00ae C4F81431 		str	r3, [r4, #276]	@ float
 2562 00b2 84F81861 		strb	r6, [r4, #280]
 2563              	.LVL139:
 2564              		.loc 4 4 8 is_stmt 0 view .LVU762
 2565              	.LBE532:
ARM GAS  /tmp/cctzcNd8.s 			page 46


 2566              	.LBE533:
 2567              		.loc 2 28 9 is_stmt 1 view .LVU763
 2568              		.loc 2 28 40 is_stmt 0 view .LVU764
 2569 00b6 C4F8F4C0 		str	ip, [r4, #244]	@ float
 2570              		.loc 2 28 20 view .LVU765
 2571 00ba C4F8E8C0 		str	ip, [r4, #232]	@ float
 2572              		.loc 2 29 9 is_stmt 1 view .LVU766
 2573              		.loc 2 29 40 is_stmt 0 view .LVU767
 2574 00be C4F8F0E0 		str	lr, [r4, #240]	@ float
 2575              		.loc 2 29 20 view .LVU768
 2576 00c2 C4F8ECE0 		str	lr, [r4, #236]	@ float
 2577              		.loc 2 30 9 is_stmt 1 view .LVU769
 2578              		.loc 2 30 23 is_stmt 0 view .LVU770
 2579 00c6 C4F8F800 		str	r0, [r4, #248]	@ float
 2580              		.loc 2 31 9 is_stmt 1 view .LVU771
 2581              		.loc 2 31 23 is_stmt 0 view .LVU772
 2582 00ca C4F8FC10 		str	r1, [r4, #252]	@ float
 2583              		.loc 2 32 9 is_stmt 1 view .LVU773
 2584              		.loc 2 32 21 is_stmt 0 view .LVU774
 2585 00ce C4F800C1 		str	ip, [r4, #256]	@ float
 2586              	.LVL140:
 2587              		.loc 2 32 21 view .LVU775
 2588              	.LBE536:
 2589              	.LBE539:
 2590              	.LBE560:
 2591              	.LBB561:
 2592              	.LBI544:
 2593              		.loc 2 26 5 is_stmt 1 view .LVU776
 2594              	.LBB556:
 2595              	.LBB553:
 2596              	.LBB551:
 2597              	.LBI547:
 2598              		.loc 4 4 8 view .LVU777
 2599              	.LBB549:
 2600 00d2 C4F84431 		str	r3, [r4, #324]	@ float
 2601 00d6 C4F84871 		str	r7, [r4, #328]	@ float
 2602              	.LBE549:
 2603              	.LBE551:
 2604              		.loc 2 27 5 is_stmt 0 view .LVU778
 2605 00da C4F85421 		str	r2, [r4, #340]	@ float
 2606              		.loc 2 28 40 view .LVU779
 2607 00de 1A4A     		ldr	r2, .L40+28
 2608 00e0 C4F82C21 		str	r2, [r4, #300]	@ float
 2609              		.loc 2 28 20 view .LVU780
 2610 00e4 C4F82021 		str	r2, [r4, #288]	@ float
 2611              		.loc 2 32 21 view .LVU781
 2612 00e8 C4F83821 		str	r2, [r4, #312]	@ float
 2613              	.LBE553:
 2614              	.LBE556:
 2615              	.LBE561:
 2616              		.loc 5 13 8 view .LVU782
 2617 00ec 174A     		ldr	r2, .L40+32
 2618 00ee C4F85821 		str	r2, [r4, #344]	@ float
 2619 00f2 174A     		ldr	r2, .L40+36
 2620              	.LBB562:
 2621              	.LBB557:
 2622              	.LBB554:
ARM GAS  /tmp/cctzcNd8.s 			page 47


 2623              		.loc 2 29 40 view .LVU783
 2624 00f4 174D     		ldr	r5, .L40+40
 2625              	.LBE554:
 2626              	.LBE557:
 2627              	.LBE562:
 2628              		.loc 5 13 8 view .LVU784
 2629 00f6 C4F85C21 		str	r2, [r4, #348]	@ float
 2630 00fa 174A     		ldr	r2, .L40+44
 2631              	.LBB563:
 2632              	.LBB558:
 2633              	.LBB555:
 2634              	.LBB552:
 2635              	.LBB550:
 2636              		.loc 4 4 8 view .LVU785
 2637 00fc C4F84C31 		str	r3, [r4, #332]	@ float
 2638 0100 84F85061 		strb	r6, [r4, #336]
 2639              	.LVL141:
 2640              		.loc 4 4 8 view .LVU786
 2641              	.LBE550:
 2642              	.LBE552:
 2643              		.loc 2 28 9 is_stmt 1 view .LVU787
 2644              		.loc 2 29 9 view .LVU788
 2645              		.loc 2 29 40 is_stmt 0 view .LVU789
 2646 0104 C4F82851 		str	r5, [r4, #296]	@ float
 2647              		.loc 2 29 20 view .LVU790
 2648 0108 C4F82451 		str	r5, [r4, #292]	@ float
 2649              		.loc 2 30 9 is_stmt 1 view .LVU791
 2650              		.loc 2 30 23 is_stmt 0 view .LVU792
 2651 010c C4F83001 		str	r0, [r4, #304]	@ float
 2652              		.loc 2 31 9 is_stmt 1 view .LVU793
 2653              		.loc 2 31 23 is_stmt 0 view .LVU794
 2654 0110 C4F83411 		str	r1, [r4, #308]	@ float
 2655              		.loc 2 32 9 is_stmt 1 view .LVU795
 2656              	.LVL142:
 2657              		.loc 2 32 9 is_stmt 0 view .LVU796
 2658              	.LBE555:
 2659              	.LBE558:
 2660              	.LBE563:
 2661              		.loc 5 13 8 view .LVU797
 2662 0114 C4F86031 		str	r3, [r4, #352]	@ float
 2663 0118 C4F86431 		str	r3, [r4, #356]	@ float
 2664 011c C4F86821 		str	r2, [r4, #360]	@ float
 2665 0120 C4F86C31 		str	r3, [r4, #364]	@ float
 2666 0124 C4F87031 		str	r3, [r4, #368]	@ float
 2667              	.LVL143:
 2668              		.loc 5 13 8 view .LVU798
 2669              	.LBE498:
 2670              	.LBE564:
 2671              	.LBE565:
 2672              	.LBE566:
 2673              		.loc 7 70 1 view .LVU799
 2674 0128 F8BD     		pop	{r3, r4, r5, r6, r7, pc}
 2675              	.L41:
 2676 012a 00BF     		.align	2
 2677              	.L40:
 2678 012c 00000000 		.word	.LANCHOR0
 2679 0130 00803B47 		.word	1195081728
ARM GAS  /tmp/cctzcNd8.s 			page 48


 2680 0134 00007A44 		.word	1148846080
 2681 0138 00800944 		.word	1141473280
 2682 013c 00002041 		.word	1092616192
 2683 0140 0000FA43 		.word	1140457472
 2684 0144 00E0AB45 		.word	1168891904
 2685 0148 00805644 		.word	1146519552
 2686 014c 00004842 		.word	1112014848
 2687 0150 0000DC43 		.word	1138491392
 2688 0154 00600245 		.word	1157783552
 2689 0158 CDCC4C3F 		.word	1061997773
 2690 015c 0000A041 		.word	1101004800
 2691 0160 0000AF44 		.word	1152319488
 2692 0164 0000BE43 		.word	1136525312
 2693              		.cfi_endproc
 2694              	.LFE532:
 2695              		.size	_GLOBAL__sub_I__hook_init, .-_GLOBAL__sub_I__hook_init
 2696              		.section	.init_array,"aw",%init_array
 2697              		.align	2
 2698 0000 00000000 		.word	_GLOBAL__sub_I__hook_init(target1)
 2699              		.bss
 2700              		.align	2
 2701              		.set	.LANCHOR0,. + 0
 2702              		.type	_ZL6myWind, %object
 2703              		.size	_ZL6myWind, 372
 2704              	_ZL6myWind:
 2705 0000 00000000 		.space	372
 2705      00000000 
 2705      00000000 
 2705      00000000 
 2705      00000000 
 2706              		.type	_ZL7s_state, %object
 2707              		.size	_ZL7s_state, 8
 2708              	_ZL7s_state:
 2709 0174 00000000 		.space	8
 2709      00000000 
 2710              		.text
 2711              	.Letext0:
 2712              		.file 9 "/usr/lib/gcc/arm-none-eabi/9.2.1/include/stdint.h"
 2713              		.file 10 "/usr/include/newlib/c++/9.2.1/bits/cpp_type_traits.h"
 2714              		.file 11 "/usr/include/newlib/c++/9.2.1/cmath"
 2715              		.file 12 "/usr/include/newlib/c++/9.2.1/bits/std_abs.h"
 2716              		.file 13 "/usr/include/newlib/c++/9.2.1/arm-none-eabi/thumb/v7e-m+fp/hard/bits/c++config.h"
 2717              		.file 14 "/usr/lib/gcc/arm-none-eabi/9.2.1/include/stddef.h"
 2718              		.file 15 "/usr/include/newlib/sys/_types.h"
 2719              		.file 16 "/usr/include/newlib/sys/reent.h"
 2720              		.file 17 "/usr/include/newlib/sys/lock.h"
 2721              		.file 18 "/usr/include/newlib/math.h"
 2722              		.file 19 "/usr/include/newlib/c++/9.2.1/math.h"
 2723              		.file 20 "/usr/include/newlib/stdlib.h"
 2724              		.file 21 "/workspace/ext/CMSIS/CMSIS/Include/arm_math.h"
 2725              		.file 22 "/workspace/nutekt-digital/inc/userosc.h"
 2726              		.file 23 "<built-in>"